((dp0
V9082490625628998409
p1
I787
sV4689502080141399321
p2
I772
sV1135013190742086467
p3
I832
sV-940415022552647187
p4
I851
sV-660152330539825076
p5
I1639
sV6755259377998476531
p6
I1916
sV2936563632577263124
p7
I1912
sV8600390633617640920
p8
I1662
sV9156630774705776151
p9
I712
sV-7985176251840250566
p10
I662
sV8293646724873095388
p11
I372
sV-1848585092512027184
p12
I452
sV-6071124048045151919
p13
I881
sV-6735005805343177510
p14
I1474
sV-3312802382740140173
p15
I1587
sV-9045567936064089227
p16
I1706
sV-7489955918423825768
p17
I1090
sV-303429875914004210
p18
I1369
sV-9202493221760481170
p19
I388
sV-7256910573245396514
p20
I1371
sV7739004195693774975
p21
I744
sV2042413966701758841
p22
I223
sV1312164508616819973
p23
I1779
sV-7361625848712741016
p24
I1421
sV3054894766742224422
p25
I523
sV8581614941770002764
p26
I698
sV-5934472074045979437
p27
I195
sV-7623698017321962840
p28
I711
sV5839782150254018914
p29
I610
sV6982617424015263755
p30
I1124
sV8722585993781275470
p31
I154
sV4697014490911193675
p32
I1
sV1852158852467264362
p33
I305
sV-488107960667424881
p34
I1208
sV4113529672303259565
p35
I1162
sV6090807681448489886
p36
I95
sV-6998290057807710917
p37
I1417
sV-8877588822182413621
p38
I1903
sV-6440461292041887516
p39
I115
sV-7890270533039637284
p40
I358
sV6942933009551442007
p41
I664
sV318951904052750793
p42
I1516
sV-2061736283751455185
p43
I588
sV5284225414690914020
p44
I1712
sV-8563498708650043882
p45
I1244
sV-7300216881186850753
p46
I268
sV8504432231932962955
p47
I665
sV-3786783429120743159
p48
I508
sV-8707554510573683939
p49
I568
sV9213605013227137867
p50
I245
sV-4470468211371525147
p51
I551
sV2840784003483222292
p52
I1607
sV-3710154354006596575
p53
I114
sV8459909699372349975
p54
I281
sV-51758657721381745
p55
I333
sV-8175048003539471998
p56
I3
sV-7388085101860430821
p57
I600
sV-7717307706597034768
p58
I1857
sV-3406580114446701705
p59
I1968
sV7289520544701010248
p60
I1648
sV-4209647626717354471
p61
I1312
sV-1913077480394809437
p62
I1678
sV4686386086139247217
p63
I531
sV6475428416648710661
p64
I439
sV258278081117318884
p65
I825
sV7395901697861074527
p66
I554
sV-2890682584037275637
p67
I829
sV-965420152559594547
p68
I842
sV7109260904701481229
p69
I1766
sV8642394293468828144
p70
I1590
sV1175002826479428070
p71
I1615
sV-4599393636727163429
p72
I1145
sV4059342155144310804
p73
I1100
sV5840852880867843487
p74
I1707
sV-8520632749868659783
p75
I1787
sV6505875937070299339
p76
I1328
sV203251463786508407
p77
I1548
sV-8690124345701380826
p78
I707
sV-6409133277725009790
p79
I1281
sV2828956716673540412
p80
I984
sV7010924276002572467
p81
I527
sV3587421951489801185
p82
I145
sV-9165709055872875620
p83
I860
sV732225345006872595
p84
I1812
sV7237193447717198432
p85
I56
sV6455482856502656063
p86
I1621
sV-8128542371912229421
p87
I1658
sV-5461355180342040702
p88
I1556
sV6977349729988642589
p89
I473
sV7814644688097156830
p90
I1174
sV-3982701891595575995
p91
I468
sV741041172583638581
p92
I1338
sV-4976168389897510937
p93
I1052
sV8813604130293525651
p94
I1641
sV-8292841471210057658
p95
I350
sV-6579494630017862290
p96
I949
sV-3926387480955996855
p97
I434
sV4042431966963759443
p98
I564
sV-8583893266269238848
p99
I506
sV2396085611150343002
p100
I1859
sV5254885710391138776
p101
I1502
sV3269885488164851993
p102
I1633
sV-7506384235581390893
p103
I213
sV-3410895965080918002
p104
I536
sV-3895054941927964525
p105
I1546
sV2943300522656247996
p106
I1236
sV3571603611933812906
p107
I312
sV4385853633333586686
p108
I331
sV-3382453256049823037
p109
I1242
sV-3171321284640461062
p110
I116
sV7193881469854268501
p111
I1813
sV-7382441326522573326
p112
I66
sV123077587949959463
p113
I1745
sV8939220707786185310
p114
I1213
sV-5243683122430849003
p115
I495
sV2606984352060215314
p116
I1597
sV-4248035397448942774
p117
I1846
sV-8496378976475952232
p118
I142
sV6049758334588147235
p119
I943
sV-6306904715218704629
p120
I131
sV-9190214082467470004
p121
I937
sV9146509192468700917
p122
I737
sV6961740701383079699
p123
I741
sV7477964425265621109
p124
I343
sV8616327459839591065
p125
I1526
sV-9189942151584218583
p126
I1080
sV1544762873717585184
p127
I1071
sV2084207601051673062
p128
I592
sV3865463466240567990
p129
I485
sV2914574150347219426
p130
I153
sV-5517401116436959009
p131
I962
sV-6691599696714076992
p132
I1984
sV5955061777414214628
p133
I1603
sV-6941072618461313849
p134
I1199
sV-4134572461810865895
p135
I360
sV-6539903023853922085
p136
I1042
sV-8276586243967962122
p137
I652
sV-5881091356465260065
p138
I1849
sV2417376459854712213
p139
I779
sV-2549689272203498237
p140
I546
sV-4921793805334628695
p141
I843
sV-1607863647374231353
p142
I1414
sV7571379618289910710
p143
I1163
sV-269620530311797923
p144
I1732
sV5284915626131431417
p145
I1523
sV-7207130738765198908
p146
I736
sV-8058793464914429671
p147
I1693
sV1711676439522387331
p148
I493
sV-4376405455210705328
p149
I1875
sV-4453988975677283684
p150
I807
sV-2053435107881296665
p151
I255
sV-4595742089571904833
p152
I1467
sV-5086388271920197202
p153
I340
sV-5257727564138704831
p154
I1311
sV1679310042378651050
p155
I754
sV-6583250835532759869
p156
I1424
sV-6719522112518617217
p157
I578
sV2850367919157922070
p158
I1256
sV-4685012381295525749
p159
I295
sV-5163066325262054561
p160
I1108
sV9190512938628203011
p161
I916
sV-6159931062146415300
p162
I1282
sV-8234985547322968859
p163
I30
sV-4805592090163108544
p164
I1976
sV-4291107330729431469
p165
I1638
sV7109155344798314039
p166
I1910
sV1587086886808885540
p167
I614
sV-9020242569147281890
p168
I390
sV-8919090222223357239
p169
I1741
sV-7629098500201070516
p170
I1305
sV2729111190626408579
p171
I1500
sV-8956015930535800390
p172
I1555
sV-7867382784409665450
p173
I1167
sV2874144248539376545
p174
I1992
sV1596731429083745156
p175
I618
sV6236529174658997246
p176
I1055
sV1462130073299421617
p177
I23
sV-3576039990329248748
p178
I487
sV-4483249651745840664
p179
I1675
sV-5715009224102355943
p180
I617
sV-7402734281641073196
p181
I1980
sV-8930817928939351690
p182
I682
sV827494981788980052
p183
I339
sV5671276587666317392
p184
I941
sV-5582178418720239919
p185
I1276
sV-4375644834375081381
p186
I203
sV4136385420677230855
p187
I773
sV-212983527176510806
p188
I866
sV3884291561362839346
p189
I1272
sV-1744725637042107477
p190
I849
sV2804720921356031819
p191
I90
sV-8210095891948580913
p192
I1565
sV-4694038752172489928
p193
I1402
sV9149698301250936831
p194
I539
sV-3304995273933712655
p195
I1482
sV-284442997366536173
p196
I160
sV5797617924457726769
p197
I777
sV7723241944697200189
p198
I1729
sV-1277067587393743060
p199
I560
sV6051847744604517372
p200
I1082
sV8964412122585477761
p201
I1512
sV2584084025551203106
p202
I956
sV-3473185444055940411
p203
I931
sV-4060949394271665296
p204
I1070
sV-3886495748707495361
p205
I1759
sV-2673780766719859192
p206
I1318
sV-7082273763951028651
p207
I1810
sV5127719909274807567
p208
I180
sV-5535923551616745326
p209
I159
sV2822645753203672373
p210
I932
sV-8632540229807721618
p211
I1783
sV-7032762215239632923
p212
I1035
sV-7261194805221226386
p213
I1961
sV4144904362303444936
p214
I1065
sV-1361410429514384644
p215
I1120
sV-5492238387967642597
p216
I1222
sV-5755742251322795648
p217
I1446
sV6328008869454085969
p218
I1012
sV-6146340868276977273
p219
I612
sV-6169574178834362026
p220
I1747
sV8769048100855794356
p221
I1582
sV5618127243791055921
p222
I1613
sV4913250882493481369
p223
I1978
sV594354776006627907
p224
I1142
sV-4155499018100127309
p225
I680
sV-5281817566948863661
p226
I1579
sV3951903751153261568
p227
I1127
sV-4171145772160186792
p228
I689
sV3629577244055910406
p229
I502
sV4972169293096900768
p230
I1781
sV2425886132400160849
p231
I403
sV-3593286523786250302
p232
I1514
sV-6209906485884066381
p233
I1739
sV-3405934480693224008
p234
I983
sV8517947292668395884
p235
I1113
sV-1604866719326634456
p236
I810
sV-8349134305416910889
p237
I1265
sV3231410140520846312
p238
I1754
sV7878086133896463164
p239
I1957
sV6170121829697589402
p240
I209
sV-5813711400072121925
p241
I1017
sV6670672465634268947
p242
I928
sV-4575888989282246797
p243
I265
sV1149442028819396978
p244
I1404
sV-1893973624410841323
p245
I706
sV4531492575592394249
p246
I225
sV7711303308980200160
p247
I995
sV842846501417201550
p248
I1015
sV4756734728979172533
p249
I745
sV763866869706749928
p250
I1086
sV-5691180727135013099
p251
I1350
sV5563552157167479274
p252
I1790
sV-2379261820462209275
p253
I823
sV-7604888719168633942
p254
I260
sV-974948214077502397
p255
I42
sV957630088479857345
p256
I1880
sV-2578011073631737197
p257
I1937
sV-8240210429963382718
p258
I1440
sV6006627476560013656
p259
I99
sV2587540952280802350
p260
I12
sV-4372342278216563985
p261
I1683
sV6459923699638350593
p262
I1425
sV-7642403449709161291
p263
I1257
sV-6754977617002317104
p264
I494
sV198848245836228716
p265
I21
sV9131224113041702374
p266
I259
sV6529847503002197165
p267
I1144
sV-1412463047763197934
p268
I1028
sV-2601420231829081368
p269
I1570
sV1978209065824574247
p270
I1856
sV8671770789948109260
p271
I1105
sV-5029367761183847365
p272
I149
sV2407908164985388095
p273
I1131
sV1594206519891776533
p274
I243
sV6287448850278527582
p275
I590
sV4956126618474609139
p276
I272
sV-7963789764073362950
p277
I1686
sV-6491404294933335370
p278
I676
sV2158849213884899151
p279
I1296
sV-2645598356987416013
p280
I419
sV8324188154674351824
p281
I1717
sV127578908485806392
p282
I94
sV-296557676636955101
p283
I59
sV-7292395895641695708
p284
I474
sV-2385947124746715908
p285
I1918
sV1052342010704604792
p286
I1825
sV4957801366570676979
p287
I1287
sV-2190087081896469323
p288
I187
sV-2747980002569958761
p289
I828
sV1233447242664302071
p290
I557
sV-8543134814286327823
p291
I1360
sV-1078453515786483402
p292
I1126
sV-6645253738893652511
p293
I1817
sV-8735763339754712849
p294
I241
sV-5432793419857406993
p295
I878
sV-5364712160899856113
p296
I1764
sV-1172491018201020094
p297
I158
sV8038679761480862184
p298
I100
sV-4425978037524959779
p299
I920
sV2190609939333204140
p300
I1891
sV-4530635517516786435
p301
I1703
sV1804583920579030544
p302
I743
sV6782194019060585190
p303
I1252
sV-6192377716103890229
p304
I877
sV8179083291996935578
p305
I1182
sV-43144747296912569
p306
I809
sV-2841676129656881967
p307
I483
sV-2454705495458529924
p308
I1370
sV-5872703085284095974
p309
I722
sV-625653602673789324
p310
I762
sV-2508904341176662231
p311
I1887
sV1126193382942482810
p312
I1331
sV-3026760652624195547
p313
I40
sV7761820454097708905
p314
I256
sV5838214150045022184
p315
I29
sV3933715962680903331
p316
I1263
sV4303166553155574827
p317
I1943
sV7389988565950056336
p318
I1647
sV-7808628529824183580
p319
I582
sV8570540777066461619
p320
I766
sV6834107079157928311
p321
I357
sV-5630468373378416690
p322
I127
sV6899487786424878606
p323
I1484
sV6973540846536380068
p324
I813
sV-3841172786213101111
p325
I503
sV-8475158770269030212
p326
I407
sV-809545061433796799
p327
I1528
sV-2384929018605582143
p328
I1422
sV1921090990457446246
p329
I735
sV7768176858078358290
p330
I137
sV-935949748105096019
p331
I630
sV5973691847519381699
p332
I1279
sV7834244026558534803
p333
I1415
sV2312947142927298399
p334
I655
sV-6599837848209223060
p335
I1544
sV-3206175865018905637
p336
I938
sV8257566556637812025
p337
I354
sV-2929521564160845391
p338
I1569
sV6820927470420761553
p339
I418
sV-8491251183816682310
p340
I165
sV-3713654557729491068
p341
I835
sV-4971742318987291185
p342
I400
sV-5932391056759866388
p343
I6
sV-6945469483209653697
p344
I1293
sV-6409557685183119664
p345
I451
sV-4257109999343611847
p346
I1486
sV5497802635036879185
p347
I756
sV-6636530880935474404
p348
I1574
sV7937392720817863936
p349
I1379
sV6153924391977698761
p350
I1769
sV-1379124819653208034
p351
I351
sV-6522242102892532323
p352
I1107
sV-2210194375077682787
p353
I1553
sV3728815277490154198
p354
I1917
sV-2604494515308175827
p355
I1275
sV7394822415369169180
p356
I139
sV5675178131106424242
p357
I1158
sV279996543863601173
p358
I1866
sV-2400257488542407727
p359
I1743
sV-2063727883907680094
p360
I1046
sV-584725475039215926
p361
I1938
sV-6925670792665757873
p362
I1564
sV-3270956690720838371
p363
I1506
sV5933701962734903797
p364
I416
sV-372645249911808449
p365
I1697
sV-2957727033863241782
p366
I184
sV9046073171251654509
p367
I296
sV4202270317152224827
p368
I1752
sV4599901512332593544
p369
I363
sV5706344191507825718
p370
I1630
sV-8088921220052974621
p371
I1136
sV-7303588876741005401
p372
I1927
sV5166899464429738864
p373
I1151
sV-8404500132661066458
p374
I1098
sV7837646487489571053
p375
I1617
sV5952941860558359871
p376
I286
sV3502510845760007338
p377
I382
sV-5985158251850250708
p378
I428
sV7251741387843544019
p379
I1045
sV-5301319902100253987
p380
I742
sV-4815275050173093300
p381
I661
sV-2244015987817045493
p382
I38
sV-8655945395761165989
p383
I110
sV-5024074905263842849
p384
I17
sV-7277482017937763537
p385
I492
sV2339809570377332086
p386
I41
sV-6606499481409674037
p387
I1655
sV-7377762807972831044
p388
I1542
sV4730384719025183341
p389
I1021
sV-2171184283895460175
p390
I356
sV5848637742305626393
p391
I1604
sV2812493495238238719
p392
I966
sV6527178798961531478
p393
I1418
sV3940307365339924233
p394
I865
sV-4477989572181922377
p395
I1914
sV8193534055954643057
p396
I797
sV6484682671069961166
p397
I1147
sV-1812694399780494968
p398
I102
sV7077785751173689029
p399
I168
sV-1244780622073523653
p400
I1987
sV8602230286237694587
p401
I850
sV-6915348499066159040
p402
I1543
sV-5740148371925933882
p403
I1882
sV6977297052051277633
p404
I1166
sV-8091634157538766119
p405
I697
sV7951349602759061249
p406
I309
sV8313816860478517392
p407
I211
sV5634706203962667503
p408
I801
sV6078344289069629246
p409
I1749
sV2168515087433636094
p410
I1981
sV-6833660726951706273
p411
I673
sV-2755271738371556635
p412
I1336
sV-8974466804582129986
p413
I164
sV-4187026665048715788
p414
I1561
sV-7432059592404082070
p415
I746
sV3035038556984966446
p416
I345
sV2757362362486649844
p417
I1153
sV-3356135166980817710
p418
I873
sV3972493657017129406
p419
I1313
sV-7083407008369163240
p420
I1468
sV-4885267324371405324
p421
I1808
sV-4552983336052812034
p422
I1150
sV-4046904952599809426
p423
I1535
sV863356787255652960
p424
I1094
sV-1097982440009765819
p425
I190
sV-2144284217804152768
p426
I307
sV6482420820999758130
p427
I54
sV-3423450385060590478
p428
I1598
sV-4346530999522010552
p429
I1950
sV966315115653954432
p430
I1775
sV-2749566582179357212
p431
I1843
sV-6604751718355632709
p432
I749
sV-7183504421866007218
p433
I1867
sV9067458034758574441
p434
I1443
sV-3357905707959173812
p435
I1975
sV3763285734883690035
p436
I1738
sV1728510704906079580
p437
I774
sV-7278142043567277172
p438
I1668
sV-258386705672313678
p439
I1307
sV-205887421398457440
p440
I125
sV-4255906145781727386
p441
I1819
sV-2825319746094646426
p442
I465
sV7278414220583882776
p443
I226
sV-6034172062640988486
p444
I486
sV-8259133109129167396
p445
I1030
sV-6655927395515165363
p446
I170
sV-3047203140006640650
p447
I606
sV-3966324279534387421
p448
I1948
sV-5547065374611946666
p449
I370
sV-7154752383833648999
p450
I62
sV-4317515119936650885
p451
I251
sV4313812860434517324
p452
I88
sV4047468682330031577
p453
I391
sV-2512346814961359892
p454
I1722
sV180604055055169479
p455
I879
sV4351331710881888756
p456
I1725
sV7128941744969160079
p457
I73
sV-9181954421703290111
p458
I383
sV-3716565219723564694
p459
I732
sV7237300102721734709
p460
I577
sV-5385537249890202479
p461
I827
sV-3371239597013147908
p462
I1936
sV1039581953154104132
p463
I857
sV-5516931871002486896
p464
I1623
sV-4618963433435933606
p465
I619
sV4170007516780842790
p466
I781
sV3158986214629900032
p467
I897
sV4404507569092733905
p468
I1713
sV-8914464863762678881
p469
I627
sV4404054447851686653
p470
I792
sV-8276638921905327302
p471
I1354
sV530848751124349321
p472
I1016
sV-4864988131354548295
p473
I1680
sV-1064152954200704555
p474
I399
sV-9008925037793886842
p475
I1661
sV9066598418877635793
p476
I695
sV7866576113340895115
p477
I458
sV2951766750408260687
p478
I1374
sV7614334876627285822
p479
I1788
sV5150083372514325217
p480
I1688
sV-8412622048338198339
p481
I147
sV1419888939115658319
p482
I625
sV-2864970131364548445
p483
I1899
sV-1702694829810068100
p484
I1870
sV-6531816480725651453
p485
I217
sV-867255783834664811
p486
I1154
sV8532503536113702039
p487
I1400
sV-2901486774679816593
p488
I1194
sV-8817405446696378563
p489
I666
sV2666165647163340944
p490
I1419
sV-1477834571346921172
p491
I1676
sV7342156431046465584
p492
I725
sV5587122886836885408
p493
I1492
sV546485900534542453
p494
I1711
sV-2026327474615253081
p495
I467
sV4828857202132424980
p496
I1635
sV-9070887554893837092
p497
I567
sV3939940843357256698
p498
I622
sV-1957590033086240723
p499
I34
sV3487209931552756601
p500
I645
sV-1115593437686158905
p501
I82
sV3247902953025099742
p502
I1760
sV-1287901756552786603
p503
I1521
sV-306626713584702071
p504
I52
sV-6826175758878956514
p505
I191
sV-6818308023500369068
p506
I1763
sV-3247029476127723832
p507
I1494
sV6940355838132160535
p508
I27
sV4941167822436894045
p509
I254
sV-214112947209201294
p510
I1902
sV-3655804394968164826
p511
I207
sV-2966187278753386350
p512
I1067
sV8065326060926824308
p513
I1642
sV-8506521236582392808
p514
I1518
sV-138889680107600025
p515
I1176
sV-6059457345737298880
p516
I1848
sV4464289448417062777
p517
I1149
sV-3221108052186253383
p518
I91
sV7482525821744759509
p519
I901
sV-2503896161629471198
p520
I510
sV-4977997420793944836
p521
I1087
sV-8936615423548208677
p522
I1348
sV6756871902441838709
p523
I671
sV-6916771625541437162
p524
I122
sV5851127098417361943
p525
I993
sV-5507078822517359344
p526
I1965
sV5399048486759263580
p527
I1058
sV2562570278968530697
p528
I1536
sV-5287905756596786919
p529
I1351
sV-57167024322842107
p530
I1637
sV7804861921957032342
p531
I1375
sV2868290634651933512
p532
I1423
sV6685544489022578691
p533
I799
sV7600253632840639847
p534
I1202
sV-7981154638613983862
p535
I1826
sV-7767289030705899707
p536
I1061
sV3168235720721035056
p537
I1003
sV-383231890572301883
p538
I585
sV7139336849268940543
p539
I1644
sV-4343998561613089743
p540
I1893
sV9206275686244764875
p541
I1841
sV1595537184985648316
p542
I1538
sV-5710723271693897389
p543
I596
sV-6947449472089792515
p544
I1524
sV2589127531890201053
p545
I1125
sV5502528845814007324
p546
I765
sV4051456752430124035
p547
I1625
sV-507963918987245871
p548
I1777
sV-2317497119690650259
p549
I1234
sV-8031637693064444227
p550
I1381
sV8732843514650058678
p551
I1345
sV1958042590336440825
p552
I1010
sV9095332521007865159
p553
I579
sV-937436842931607517
p554
I174
sV5246141644644299038
p555
I1081
sV-3880682617352937394
p556
I1251
sV4817185265171864610
p557
I918
sV-4539885023607921459
p558
I899
sV-4921212371110555224
p559
I981
sV-5046409709390354060
p560
I544
sV2904932941037075699
p561
I432
sV6618922083065447616
p562
I635
sV8733716205359733790
p563
I261
sV4489563673511019043
p564
I1815
sV-4510220896859961775
p565
I249
sV6133764690084410026
p566
I1456
sV-1909670907650306800
p567
I1233
sV-6383679864498497348
p568
I1292
sV-8470472211415525463
p569
I1335
sV-6324454162664245193
p570
I524
sV-1134449461011864348
p571
I79
sV-3652432494449008463
p572
I874
sV6785477830855995834
p573
I1240
sV3349960185284564716
p574
I640
sV363026071972955475
p575
I1614
sV-2316595484593170922
p576
I1894
sV5613061346723845145
p577
I563
sV465065448523711562
p578
I1302
sV-1293257957773648492
p579
I1159
sV7065221060437823699
p580
I1649
sV-7135491570488962839
p581
I886
sV1553849747662134917
p582
I1037
sV8500993396239092897
p583
I1595
sV7497132452884561764
p584
I1258
sV-6857749722158756463
p585
I1232
sV5691190333995993179
p586
I1301
sV-5606269680673074664
p587
I1193
sV-5312820382794140407
p588
I278
sV-7783767359467907092
p589
I1901
sV-4290228299766776524
p590
I1619
sV3972456192477785643
p591
I1820
sV400747363837837128
p592
I831
sV-6759553353177825959
p593
I1702
sV2034901556203965439
p594
I1223
sV-2611831146743123406
p595
I679
sV6437230815004219214
p596
I1945
sV-2874840460379736898
p597
I461
sV-4328908197646748895
p598
I1495
sV2038346666458203301
p599
I1235
sV4284828052993734182
p600
I1714
sV-1692861144730989249
p601
I1160
sV-7988411047591774888
p602
I1904
sV1509707312768337838
p603
I1290
sV-3612010574565570785
p604
I1112
sV-2700764582293572246
p605
I1877
sV-1296893385346514597
p606
I972
sV-67242350353941334
p607
I1228
sV-641296879189318453
p608
I230
sV-288666390873265147
p609
I1858
sV3288685408108844119
p610
I1291
sV-6237225386243356575
p611
I1575
sV1907358896483963221
p612
I1560
sV-3530498516767785588
p613
I97
sV-6831250779365929435
p614
I1653
sV-9191306710136658354
p615
I767
sV3383016985780045156
p616
I1143
sV2176113691990522905
p617
I63
sV1132414472776926617
p618
I1073
sV2183097528579409954
p619
I221
sV2515257722796787281
p620
I717
sV-8604769718409632655
p621
I672
sV-5383470687773556672
p622
I1935
sV-8690716061410596833
p623
I1267
sV810067918938531886
p624
I1988
sV-9189723362012067754
p625
I915
sV-2270819689943837066
p626
I1333
sV6277846260132427404
p627
I882
sV119806503996110046
p628
I839
sV-3754053668725070591
p629
I1023
sV927157639555241548
p630
I1767
sV-7274130935521678793
p631
I1942
sV6113530251130504317
p632
I440
sV-3238589569580794755
p633
I1951
sV723459724834097281
p634
I991
sV-6935423857365477159
p635
I462
sV-6040061883174458353
p636
I1874
sV-5074225991224451769
p637
I1040
sV-6968743648143929951
p638
I1727
sV-4341766724811689661
p639
I1408
sV-6693924458286834451
p640
I361
sV3627686927328132632
p641
I505
sV4960651917266580984
p642
I1719
sV1052210788805438774
p643
I443
sV5576644993511241222
p644
I1271
sV-1542232383501596031
p645
I584
sV-92860682507089288
p646
I1897
sV-8671398044778357164
p647
I1886
sV-8753953007931296119
p648
I977
sV5620442535590473483
p649
I1589
sV715406001842462900
p650
I1696
sV-7625780603244790259
p651
I1469
sV7449878083916369913
p652
I1186
sV-7389439858234957818
p653
I133
sV-6592842803508310786
p654
I864
sV377872747222364124
p655
I821
sV372824948001296711
p656
I1450
sV-1835741376927652987
p657
I362
sV-5924179035578229915
p658
I1534
sV-4094504804738039741
p659
I1853
sV4610596224687453206
p660
I583
sV5702343302237640989
p661
I1384
sV8256920922884334326
p662
I1515
sV467854653740151741
p663
I104
sV-1739559252355167518
p664
I913
sV6189759144033325615
p665
I120
sV2284379093365280181
p666
I893
sV-2410784981474048482
p667
I656
sV7461900687223497572
p668
I1286
sV-5833678375673307423
p669
I476
sV-289045265883160915
p670
I196
sV-4408042312386689938
p671
I1210
sV-7158068093440012389
p672
I1823
sV-634630012192348800
p673
I522
sV-7244570757266327934
p674
I481
sV76251316322796397
p675
I302
sV-5197200702793464225
p676
I314
sV3065185060409823831
p677
I417
sV191637238080651225
p678
I1273
sV-7485487238471669174
p679
I1062
sV-3171150797683574404
p680
I185
sV-3890819584814276652
p681
I1215
sV-7306785714459703344
p682
I1652
sV1239585011552693824
p683
I421
sV-3595861090298905936
p684
I1093
sV2960665917532581398
p685
I1309
sV7063855203073696823
p686
I758
sV7520467742563767493
p687
I1427
sV-8360291425523348325
p688
I1431
sV-8809065195096599018
p689
I692
sV6730370718823182775
p690
I909
sV2325532988800688306
p691
I1066
sV-2208197439532367343
p692
I1478
sV1195896392220930869
p693
I999
sV-3645735357732416904
p694
I663
sV-5295045465633304607
p695
I466
sV-2432174593375084007
p696
I1074
sV1426144244057814596
p697
I540
sV2865051795429918701
p698
I429
sV-400525901828896492
p699
I576
sV-5377744807982831194
p700
I1447
sV-4496395654369317320
p701
I1505
sV8824437633825893435
p702
I285
sV7526284554176419967
p703
I1172
sV5397363254409200346
p704
I637
sV7911910053664227396
p705
I960
sV1870872991887862017
p706
I171
sV-5264509641502027935
p707
I782
sV4517730048981926303
p708
I1923
sV3418451812342379591
p709
I521
sV-8294426931183223528
p710
I1549
sV-4627817822262492884
p711
I1391
sV-3928200017056854908
p712
I367
sV1368382100401604712
p713
I1709
sV-6850880511687131557
p714
I1784
sV-5297443792466905800
p715
I714
sV-7270992690764838239
p716
I270
sV2163040607327628261
p717
I1522
sV-4799035831110725204
p718
I1264
sV3444689810794944326
p719
I604
sV-2086863971949478092
p720
I1099
sV-6736490454993663221
p721
I986
sV944960297467578380
p722
I518
sV-3308846312896048251
p723
I891
sV-8592873429166825073
p724
I626
sV-2185840155926169542
p725
I1952
sV-266612986122336493
p726
I1246
sV6621328949299074002
p727
I199
sV-2597010810359075675
p728
I369
sV8022905568116914967
p729
I952
sV-3578642787560041946
p730
I1399
sV1883376476350161480
p731
I1776
sV6195781391249929126
p732
I548
sV-5483703385391965908
p733
I1871
sV-2667619839677460873
p734
I657
sV5160330435175345822
p735
I709
sV1033816721290613934
p736
I1132
sV3787020472867489510
p737
I1075
sV2802807297246536023
p738
I558
sV6797468512182240005
p739
I279
sV-5271733747232358004
p740
I884
sV-4628321180307498093
p741
I575
sV-3356822828991224126
p742
I290
sV-5078457515830483462
p743
I227
sV616649108700697054
p744
I1078
sV1840848880823843395
p745
I321
sV-3854199175676498768
p746
I469
sV-1578624787506041748
p747
I790
sV-2272840038915065759
p748
I1054
sV-253382038868549836
p749
I1464
sV3620560314982595526
p750
I299
sV4931893522763265934
p751
I289
sV8753586927626560871
p752
I70
sV6185119154639737496
p753
I761
sV7283655748413496857
p754
I1972
sV-2825316495796585570
p755
I964
sV233310241887300764
p756
I264
sV-3473982758005783430
p757
I1511
sV8255556364363894453
p758
I135
sV-8217837422471420147
p759
I859
sV4585410756047464122
p760
I759
sV8556653203196579720
p761
I1991
sV-5113954673580054853
p762
I1541
sV-7844932991499998016
p763
I1389
sV5126229382986482646
p764
I1989
sV-4854080174949497665
p765
I214
sV-1026774652826195893
p766
I1581
sV7932776971796693414
p767
I329
sV-2944189228057544610
p768
I1698
sV4986547532010670575
p769
I1453
sV-8075733003501829416
p770
I319
sV-2148914447613726391
p771
I516
sV-8271228722369845310
p772
I435
sV3698337232083548513
p773
I148
sV2782670153102643340
p774
I1140
sV953535750771065392
p775
I292
sV6508005928201477851
p776
I904
sV-5732564720446782766
p777
I426
sV3251367506358243575
p778
I1437
sV8852526557827312102
p779
I659
sV496702181072361916
p780
I753
sV-2428977755640385826
p781
I146
sV-3751354412512421448
p782
I586
sV-8274522839089381384
p783
I1756
sV-5513826101327857645
p784
I9
sV-6276620921915327444
p785
I1342
sV4695031998360726172
p786
I1341
sV-5548317348868241000
p787
I1283
sV9030484820615456959
p788
I1605
sV-8424110050280813309
p789
I287
sV-3517637179126242000
p790
I16
sV-6317533119990651087
p791
I497
sV6757776550201397844
p792
I1412
sV-7920896696482531061
p793
I683
sV-5091735158287767326
p794
I844
sV886720308663584531
p795
I1198
sV6719184207199359959
p796
I1631
sV5395292281504366735
p797
I1225
sV-5040760839149945887
p798
I1253
sV7461966230605672098
p799
I830
sV7178462458998249847
p800
I1593
sV-4115748438709160582
p801
I1966
sV3368482620480350745
p802
I177
sV6957390495980542955
p803
I675
sV443748424298996449
p804
I1084
sV-8057515460092391911
p805
I1129
sV6694271821571834609
p806
I649
sV-6666640731218555667
p807
I1349
sV-3250879589215178639
p808
I764
sV-6708234822310526870
p809
I638
sV1498101358485403935
p810
I1682
sV6158500871224119394
p811
I1861
sV-1541526768635629880
p812
I1077
sV-8330177318910444596
p813
I1051
sV7318907785137551256
p814
I795
sV-9207116738755198978
p815
I392
sV4615229981949418360
p816
I274
sV2956108618420608905
p817
I1660
sV4783946863855560712
p818
I69
sV3166881464375738634
p819
I1361
sV9038362052565301884
p820
I1700
sV-3182736478163180292
p821
I702
sV-7260115012837074269
p822
I1772
sV6018641953300645757
p823
I1773
sV4645077198390733438
p824
I1219
sV8128505679583243627
p825
I1106
sV-1247043476329724186
p826
I215
sV309958747543063025
p827
I1323
sV-447621759006218148
p828
I463
sV2188640265057376235
p829
I917
sV4882127780588218185
p830
I1796
sV-7276757922692328501
p831
I78
sV-6637171571708691638
p832
I347
sV787153473600490253
p833
I378
sV-3025995229993781911
p834
I609
sV569940021530854113
p835
I1551
sV6689024254240076864
p836
I1634
sV2347973810368732059
p837
I13
sV-4678726459447663357
p838
I815
sV7473164687826110412
p839
I396
sV-3531693480182650642
p840
I250
sV-6216930488646770123
p841
I1164
sV-7710528027833427554
p842
I257
sV9068963265682720586
p843
I397
sV-2715832189532723552
p844
I1368
sV5837628487243570427
p845
I1317
sV-8591725246688996314
p846
I1201
sV8198062245752130541
p847
I1679
sV-6289779852907129222
p848
I334
sV-833074414957851585
p849
I1586
sV-4638359948015624821
p850
I733
sV-5182171624642467270
p851
I1490
sV-309179178474245125
p852
I1229
sV-8780119653771094858
p853
I193
sV-9151760353406633174
p854
I912
sV-2252347929235450937
p855
I182
sV8592306961204380723
p856
I794
sV2853547827536559669
p857
I1429
sV-1733532638025265853
p858
I1200
sV9198481215327194426
p859
I716
sV-7358589937244777363
p860
I76
sV-6183831864696688691
p861
I628
sV2478695500618560154
p862
I1720
sV7727115678845931341
p863
I998
sV1833966078556927530
p864
I39
sV-2289743852863129386
p865
I1888
sV5195052674759712046
p866
I1355
sV1602071285682694082
p867
I371
sV1840534911833780111
p868
I534
sV-9193714286190364511
p869
I275
sV-2113178690855415018
p870
I1416
sV-978567319737022832
p871
I210
sV8339019570260683343
p872
I1583
sV7259175568841790177
p873
I1187
sV5948340753284292141
p874
I498
sV-5028991260192797058
p875
I1985
sV-5871239255891841056
p876
I1640
sV639720505558266916
p877
I1795
sV7265949492506113547
p878
I944
sV5945192601099058576
p879
I1588
sV4797226510592237555
p880
I123
sV1945786109636206690
p881
I1325
sV3812630496047239920
p882
I130
sV760095082858047992
p883
I700
sV1160326435131345730
p884
I573
sV7703565330513018712
p885
I968
sV8793023054666221242
p886
I140
sV4697494136307113064
p887
I570
sV4840599462703862798
p888
I545
sV6483290456065237989
p889
I1854
sV3594347865816291236
p890
I990
sV-8365788239271014215
p891
I1315
sV-464404353548511930
p892
I1594
sV-3900318848301728120
p893
I987
sV8490591142396750145
p894
I1452
sV-3174907002942471215
p895
I694
sV-7951567235515055279
p896
I1397
sV-2081265111210072467
p897
I784
sV8977315052041277515
p898
I33
sV-2378023649280419876
p899
I1993
sV6904717554955151340
p900
I1109
sV-4844983888056131462
p901
I152
sV-2299947672181109599
p902
I375
sV-1306763714361703082
p903
I384
sV2369354056312575099
p904
I394
sV7734445005828304333
p905
I1188
sV-1818608831920242374
p906
I216
sV7398631798606661688
p907
I1883
sV-3603500707650257526
p908
I301
sV-266893549648994617
p909
I374
sV7612369293897193240
p910
I708
sV7637660878558952620
p911
I150
sV6526512487506688907
p912
I1780
sV8862969808231313935
p913
I1388
sV-4647222608650438774
p914
I806
sV-8483512903543904044
p915
I1376
sV-4379247820452209357
p916
I1245
sV4444970904898179447
p917
I1704
sV-315342960042848847
p918
I1019
sV7782743223410052415
p919
I1102
sV2348439063888615756
p920
I798
sV2919247920214845195
p921
I236
sV730827694591115921
p922
I300
sV4826295158480970984
p923
I405
sV-5363951565728187051
p924
I677
sV-5247895193618942845
p925
I615
sV5353288621685179703
p926
I1339
sV-268886646698338239
p927
I348
sV2024918785185496622
p928
I420
sV-8164473300321350006
p929
I1651
sV8923423159850053928
p930
I1095
sV7006422955498725720
p931
I1119
sV8382235673310200820
p932
I1969
sV-3418975465402388399
p933
I1217
sV4647413168079516052
p934
I1118
sV125312951999750184
p935
I876
sV-6392418462462658998
p936
I1018
sV-7588378164638163170
p937
I1774
sV-4687652401249709790
p938
I1576
sV5653231896805341062
p939
I647
sV1410196403110961308
p940
I1343
sV-2324450162924245773
p941
I775
sV9179879420614690447
p942
I1591
sV-111444386959930591
p943
I218
sV-4291493300288812940
p944
I1758
sV7596780943228995766
p945
I315
sV7116875195131178045
p946
I785
sV4627183237363916621
p947
I824
sV-3834635940635905116
p948
I1406
sV-8240034336161147774
p949
I924
sV-7149588690342184679
p950
I803
sV8690965822342756180
p951
I121
sV-135332569645961696
p952
I1322
sV-2277518557160807369
p953
I1128
sV-2307848549279054583
p954
I1694
sV-1256788148331186620
p955
I1031
sV-8109793286902118151
p956
I543
sV1246453218617842851
p957
I1314
sV-7505564508903239248
p958
I1297
sV-4488464012437086531
p959
I1568
sV-3522198575349379632
p960
I20
sV4136380367039673024
p961
I565
sV382893984981043609
p962
I1352
sV1929433213325443915
p963
I25
sV-7733780507306249147
p964
I1926
sV-3296456675883953898
p965
I423
sV564572820242783793
p966
I1807
sV-1449057232044065503
p967
I1905
sV4972909213208903305
p968
I1195
sV5963738322232438878
p969
I1545
sV1420790574181137744
p970
I644
sV-3061873284528456248
p971
I1785
sV-1251238547469584119
p972
I739
sV4217012776222153798
p973
I1554
sV7792886053889220161
p974
I186
sV-3747151213341814246
p975
I267
sV-7496262653600316163
p976
I603
sV3812457715228923422
p977
I1380
sV9094462885938385286
p978
I556
sV-9144190321895213851
p979
I1114
sV-6254806834008898035
p980
I454
sV5203073629384068409
p981
I1814
sV6324291111388754690
p982
I581
sV-2973837578933146413
p983
I597
sV6810657854754527644
p984
I1068
sV-8691303727714013806
p985
I1394
sV-6270130442784051389
p986
I161
sV8934878948902408411
p987
I106
sV5154428478508391411
p988
I175
sV-1129282008947139174
p989
I316
sV-3908552006934667015
p990
I1385
sV8472140268318420389
p991
I940
sV-8368395784867923046
p992
I898
sV-548176348047239669
p993
I306
sV-5369979592181110026
p994
I317
sV-2708575780282931506
p995
I1643
sV8697050490955193511
p996
I22
sV-512794068235242963
p997
I629
sV-1528665449659634829
p998
I108
sV2027693463582123305
p999
I1364
sV7312924884970992973
p1000
I1111
sV-8263821218933164468
p1001
I1934
sV-7602563957335875707
p1002
I455
sV6519476806919078477
p1003
I747
sV1591780979474750959
p1004
I1667
sV3195914392210930723
p1005
I98
sV1257663557362813056
p1006
I1050
sV-6746100647744083283
p1007
I74
sV-4186044945552320533
p1008
I229
sV5782598437912985562
p1009
I1260
sV3844703788726806478
p1010
I875
sV3738968195649774859
p1011
I36
sV1600231632806639649
p1012
I1577
sV1125547749381005553
p1013
I1278
sV1255429363788893814
p1014
I1509
sV8057405216243595195
p1015
I144
sV7118972759448144772
p1016
I1836
sV7637995288174517586
p1017
I927
sV-9119389643029055864
p1018
I1740
sV2838091149470021485
p1019
I57
sV-8931153647420476080
p1020
I1401
sV-1805719959600766714
p1021
I978
sV-5653685018999330538
p1022
I183
sV5630647833836040328
p1023
I298
sV9194725009816296853
p1024
I303
sV7358743120658680867
p1025
I200
sV-4350774118563465177
p1026
I1463
sV-2752119047024900440
p1027
I1824
sV-2470450211317525201
p1028
I107
sV3134999190540085909
p1029
I1059
sV-3283270692786298820
p1030
I437
sV248035954018101491
p1031
I515
sV-4842117090584879970
p1032
I68
sV-2266542845480926197
p1033
I1610
sV4635541421251975104
p1034
I1895
sV818287567137330443
p1035
I1744
sV8958330808961387452
p1036
I1889
sV-4257846564893706064
p1037
I816
sV-5715197946812265320
p1038
I538
sV3541067235871077620
p1039
I513
sV6851000582045015586
p1040
I1606
sV-2084649285833052775
p1041
I1806
sV3685645489515579384
p1042
I980
sV-6877210863258588192
p1043
I1445
sV1919404456791921936
p1044
I1396
sV-6236292131168251599
p1045
I1669
sV6913268882499481459
p1046
I51
sV4619805718368927775
p1047
I228
sV-4192326172667715237
p1048
I967
sV-3693801457711833752
p1049
I1171
sV825212004163502270
p1050
I1835
sV1729853366387155808
p1051
I480
sV-8932546057542867495
p1052
I1721
sV2977313729944642721
p1053
I1907
sV4444538809815942711
p1054
I1803
sV1663857393137459269
p1055
I1540
sV7702329302227641319
p1056
I1373
sV1063815048865447049
p1057
I867
sV1790630374868647951
p1058
I235
sV-3941819252743792375
p1059
I304
sV3630144468001158950
p1060
I1932
sV4507987928147477649
p1061
I1873
sV6744898938415762500
p1062
I1026
sV3601908083158555273
p1063
I1685
sV322011515950961818
p1064
I1438
sV8626700618973750024
p1065
I838
sV-1716547219669564708
p1066
I92
sV682625880884350440
p1067
I449
sV8935949732944907212
p1068
I1327
sV1185488181830527625
p1069
I406
sV-1751271042943524239
p1070
I623
sV5735861801184653052
p1071
I113
sV3284260092574278990
p1072
I1730
sV2834103079369928763
p1073
I537
sV2858911571784840089
p1074
I919
sV8317207117905033099
p1075
I1097
sV-2976933761878585560
p1076
I525
sV6906396683286432414
p1077
I703
sV-4233501032149248553
p1078
I204
sV7236666175467998449
p1079
I472
sV2036843942643102910
p1080
I1410
sV-526142875017934439
p1081
I1457
sV4620290839673975123
p1082
I678
sV2457803616542404093
p1083
I572
sV2415173524227782861
p1084
I1804
sV-2696736445927423374
p1085
I198
sV-5872443091340192918
p1086
I18
sV-3924161035524229969
p1087
I511
sV-518697508631425659
p1088
I1673
sV5081547367786156934
p1089
I1477
sV-7939651710392803797
p1090
I1531
sV-2473845757256782581
p1091
I282
sV5401140137601462297
p1092
I1971
sV-8485136373063472642
p1093
I533
sV-8468200558891408887
p1094
I1096
sV3696877490134192400
p1095
I691
sV-5640305545736968503
p1096
I685
sV-2480668193641922274
p1097
I1382
sV435735599673143337
p1098
I1677
sV3543938934441229122
p1099
I910
sV6183788489797866727
p1100
I1559
sV-4484663127649000563
p1101
I750
sV-5097986439797765367
p1102
I294
sV5246457218661843199
p1103
I258
sV-5996724989260181298
p1104
I670
sV3506606446388448264
p1105
I687
sV-708798485013978373
p1106
I593
sV3828720201351423909
p1107
I398
sV-3088118575759681401
p1108
I1879
sV4019630484311065906
p1109
I1085
sV-7865809443640391823
p1110
I1636
sV2460528390051567153
p1111
I923
sV-6432674419326406562
p1112
I724
sV8046021685069769060
p1113
I430
sV-766570757389698163
p1114
I1550
sV-2149884934935655725
p1115
I651
sV2816249700493135244
p1116
I499
sV8075550195042412872
p1117
I1718
sV6762330993624022175
p1118
I1919
sV5942580068307165204
p1119
I1298
sV6815248286057533876
p1120
I239
sV-640353611485256377
p1121
I729
sV-5013142463389228316
p1122
I1994
sV5907221298687398924
p1123
I124
sV-3478495961956304702
p1124
I771
sV-4966205278807386328
p1125
I526
sV390427073704203351
p1126
I1684
sV951420572902318966
p1127
I1254
sV4248039953806100751
p1128
I192
sV1757481363245650831
p1129
I601
sV-1828317107061269531
p1130
I1765
sV7739171563081867691
p1131
I1435
sV-7839463720297334614
p1132
I1734
sV6718676536613592056
p1133
I1000
sV7697921317504152141
p1134
I1602
sV-6840647354657799328
p1135
I1892
sV-989115724037427557
p1136
I352
sV-1934955940447177718
p1137
I1372
sV2353969577414666795
p1138
I1032
sV-3097968439743765133
p1139
I349
sV7467981654311152612
p1140
I103
sV2600368633583640730
p1141
I1359
sV-7042349381148393717
p1142
I377
sV-1323705004474895038
p1143
I1599
sV-760432988437306018
p1144
I326
sV2382911985227044227
p1145
I475
sV6125464748666004102
p1146
I599
sV-7823160150035726894
p1147
I728
sV42427966967759255
p1148
I488
sV-7713914559325493608
p1149
I1104
sV-4422893742093299170
p1150
I1392
sV-2313870711084007638
p1151
I1840
sV1616786109481698063
p1152
I1842
sV-8151293691584183256
p1153
I1441
sV-4247291014640570922
p1154
I868
sV-5189774979662589703
p1155
I953
sV-8612737995048623998
p1156
I555
sV4812219843382485857
p1157
I1184
sV8183806489787866605
p1158
I1480
sV-5095107059002924325
p1159
I561
sV3894468979819174909
p1160
I1436
sV2615425226049888969
p1161
I1169
sV-3197365677142313316
p1162
I1362
sV-5487281968920391812
p1163
I812
sV5636960665828891411
p1164
I1076
sV-6300335881941851794
p1165
I65
sV-5769304345757607597
p1166
I1027
sV-5221193982773845879
p1167
I1091
sV-7361228668063598860
p1168
I1226
sV-6839713564940654454
p1169
I959
sV2820237770657228086
p1170
I1671
sV7327336430450495350
p1171
I71
sV4926226324555892746
p1172
I134
sV-7515893735868429527
p1173
I1746
sV947642205940549167
p1174
I1530
sV2241488058004423468
p1175
I1911
sV946699215012338966
p1176
I1294
sV-2727382865693190624
p1177
I820
sV-2600289688622465762
p1178
I501
sV8055035767327224979
p1179
I395
sV-5378699121209676383
p1180
I688
sV442912898635693042
p1181
I1705
sV-7044206989263083569
p1182
I470
sV4436696703857194132
p1183
I1627
sV8816271700543135410
p1184
I1768
sV-2537905926744578235
p1185
I861
sV2749323491628044459
p1186
I1139
sV5695691654483839948
p1187
I424
sV709944893639249564
p1188
I1973
sV-99435378441769379
p1189
I780
sV7876300673940894569
p1190
I1239
sV-9045161734922059274
p1191
I1933
sV6291442923225351554
p1192
I1974
sV397242931505564187
p1193
I1413
sV-8292500896134696267
p1194
I789
sV-506893134880746982
p1195
I641
sV-5603787840210684334
p1196
I89
sV4756075562652254270
p1197
I705
sV3701339131568161889
p1198
I883
sV-2059083978137705082
p1199
I817
sV8271038810799090353
p1200
I1197
sV-6925483313724611087
p1201
I1832
sV8467862653556151381
p1202
I947
sV-8071006555424837523
p1203
I778
sV3710958733904838649
p1204
I172
sV6932639971019692365
p1205
I681
sV2271656070098079690
p1206
I528
sV2131451573312950491
p1207
I336
sV2615243982215418774
p1208
I231
sV2420025939860659200
p1209
I441
sV4970306416006110305
p1210
I422
sV-6940383844640051830
p1211
I731
sV-8834356779822358514
p1212
I1940
sV-1811468762119777118
p1213
I1967
sV3523968668931516473
p1214
I1949
sV4811575033152182097
p1215
I934
sV-8509302583613116358
p1216
I1170
sV-5041846259853346443
p1217
I1092
sV-5183558434685668615
p1218
I802
sV6213925354582969315
p1219
I1851
sV-2259482849339758626
p1220
I460
sV-277167144631131335
p1221
I1115
sV948223640148622714
p1222
I1277
sV-6962046606718337437
p1223
I166
sV-2539026947967982415
p1224
I1079
sV-3484587020435445267
p1225
I1138
sV-7070869554647836474
p1226
I1308
sV-3779205475924196401
p1227
I1165
sV-3915577320911199709
p1228
I1224
sV-6974448804336129376
p1229
I1367
sV-8700804433466361123
p1230
I667
sV2620423314205594477
p1231
I872
sV5928085201623066659
p1232
I1039
sV5779833930274639409
p1233
I890
sV8804742921198031305
p1234
I693
sV4609970549280340514
p1235
I856
sV4229259523827570399
p1236
I587
sV738845194850773558
p1237
I178
sV1050656117889645239
p1238
I386
sV-1542494247795425821
p1239
I571
sV3833854281930673428
p1240
I734
sV7476760589625268543
p1241
I0
sV-4200589112729926854
p1242
I409
sV-6162947324507053330
p1243
I489
sV-4601790451622501802
p1244
I1247
sV1597326573998880188
p1245
I1800
sV6022205592682717526
p1246
I776
sV-1539232755387832050
p1247
I1476
sV-6152189531591576162
p1248
I479
sV-578156641762363345
p1249
I404
sV6362359524660190859
p1250
I690
sV2060630291013198133
p1251
I1175
sV-5638240947256623536
p1252
I1519
sV8862426237057348309
p1253
I1487
sV5347872809635730844
p1254
I900
sV-7501152358833888406
p1255
I885
sV7637093652853037385
p1256
I992
sV4735980801943654043
p1257
I143
sV5090670680639488645
p1258
I1995
sV-8921033697231531910
p1259
I471
sV5861391680921034810
p1260
I1724
sV-2630097082058343181
p1261
I520
sV-5725284888663475863
p1262
I1898
sV6233332241905300962
p1263
I31
sV3261043446953365142
p1264
I1137
sV-8608059476818882548
p1265
I311
sV-3027130786863096591
p1266
I562
sV-1159514227928535208
p1267
I1525
sV2353421622418180700
p1268
I970
sV2872176636559084285
p1269
I297
sV7253987629229636499
p1270
I1527
sV6076152359408392737
p1271
I1262
sV463750704786845608
p1272
I1666
sV-8594215559868837681
p1273
I1029
sV3490469538808305901
p1274
I1459
sV-8503907262844320611
p1275
I1797
sV-2129487364414263467
p1276
I965
sV-8252138064428255186
p1277
I1259
sV-2689200710357900655
p1278
I514
sV-1386735796399192077
p1279
I740
sV5252993787219186549
p1280
I896
sV7504765820134758058
p1281
I701
sV2707519855514695474
p1282
I246
sV-1029971585579892097
p1283
I242
sV2327504309227366054
p1284
I1517
sV-96415308824933540
p1285
I1465
sV3250728804941389085
p1286
I863
sV-8966465280115387956
p1287
I1646
sV958161591095441794
p1288
I715
sV6934860948848408209
p1289
I1117
sV-3333307402327293632
p1290
I1834
sV8461136052903019092
p1291
I109
sV-3744255770910909874
p1292
I542
sV5308164272008345585
p1293
I650
sV-608973789957727561
p1294
I366
sV464098448481254928
p1295
I37
sV521166281704794588
p1296
I796
sV-1201071336132923959
p1297
I401
sV-3228384271303228006
p1298
I1321
sV518807297849537945
p1299
I549
sV-2158546774951374352
p1300
I1612
sV7261047446949365330
p1301
I1183
sV-7790543634407640064
p1302
I1063
sV2056976393823539020
p1303
I1204
sV4136187443925457351
p1304
I1334
sV8610942552777272887
p1305
I935
sV3471965724367244818
p1306
I768
sV-4175044003751472418
p1307
I86
sV3359253792326581125
p1308
I658
sV813840053768678454
p1309
I224
sV-4458245011278275078
p1310
I1177
sV5732944515355059947
p1311
I1157
sV4747555070055547950
p1312
I905
sV7292865377486234297
p1313
I1248
sV4960981578552030421
p1314
I169
sV-4271026173614872626
p1315
I997
sV-1632756942582150130
p1316
I1411
sV3028813107806213121
p1317
I1230
sV4126348383745483901
p1318
I263
sV1619650717341926052
p1319
I686
sV-8693020145305989672
p1320
I1770
sV9051597753027124816
p1321
I1786
sV-721980443721545552
p1322
I1792
sV-5703675413724357458
p1323
I547
sV6128804744224159220
p1324
I43
sV5804619920623030604
p1325
I611
sV4840715880086842414
p1326
I1340
sV-8754995617056317074
p1327
I247
sV7592036674792056069
p1328
I811
sV-823705168688534512
p1329
I1913
sV-4396474713128893708
p1330
I491
sV3937009208401626102
p1331
I1753
sV-183764869825974842
p1332
I1363
sV-805614959043765769
p1333
I1609
sV4928686579058965613
p1334
I188
sV-6927564467091501561
p1335
I955
sV-490310687477662812
p1336
I1462
sV881452243543100756
p1337
I189
sV3613386045962125096
p1338
I1845
sV2280739588051656760
p1339
I1909
sV4743207609281160647
p1340
I1946
sV-1272799350744810580
p1341
I1178
sV-2973677681520235556
p1342
I894
sV844641982688873856
p1343
I402
sV3174540452399560541
p1344
I1330
sV-6489468578488009978
p1345
I613
sV850238065607344830
p1346
I1963
sV-2288652390863265229
p1347
I791
sV2820174307247949506
p1348
I598
sV-1057952542303625894
p1349
I1116
sV6598132981359524758
p1350
I684
sV5727179283235569021
p1351
I55
sV-7603044093174944268
p1352
I1628
sV-4779086475169195362
p1353
I1014
sV3820922726386715360
p1354
I862
sV1158968214639900190
p1355
I936
sV-2140361463758283053
p1356
I1818
sV3932429241903732643
p1357
I1101
sV-529754693268731380
p1358
I668
sV591743024806900405
p1359
I1383
sV-3627158374105338201
p1360
I1922
sV8019634484099065422
p1361
I1571
sV6579813155637084319
p1362
I1346
sV3746853056228709186
p1363
I1852
sV-9091771158315767194
p1364
I1608
sV-6365086022926708021
p1365
I1005
sV-1843921060214341675
p1366
I1924
sV-71019233546203287
p1367
I1189
sV-3236569225419487076
p1368
I633
sV-3553102336811813291
p1369
I950
sV8286067888742086892
p1370
I233
sV-6371157878623138908
p1371
I1837
sV-8818294023490369214
p1372
I855
sV-5533197189576067599
p1373
I201
sV-8344184689912001345
p1374
I1690
sV-1352932315759920358
p1375
I605
sV-3288086889604257964
p1376
I1455
sV-202658488388760612
p1377
I1089
sV8325178746224233621
p1378
I1285
sV2382426917414671257
p1379
I1884
sV7394364441236973511
p1380
I957
sV-5935329614274008475
p1381
I1022
sV-873181404731804450
p1382
I930
sV-4653836020042332281
p1383
I2
sV-8252369929269451135
p1384
I1280
sV-7977896420088943791
p1385
I1791
sV7759352448651569694
p1386
I482
sV3076374316897797096
p1387
I1513
sV1373190831171479026
p1388
I341
sV-2290914319004584677
p1389
I621
sV6179724419779689236
p1390
I318
sV252983656834218346
p1391
I1672
sV1250723830949130791
p1392
I1009
sV2470455971679919165
p1393
I669
sV1395928881946561577
p1394
I954
sV-5939784184924423143
p1395
I320
sV5277709259355426347
p1396
I1862
sV3040328401474530651
p1397
I132
sV8802446458100491067
p1398
I1664
sV-1952321452846772720
p1399
I1033
sV2274503685210781685
p1400
I1557
sV-3149765934180654494
p1401
I1386
sV-1945278234078776687
p1402
I1503
sV-1282613433387309359
p1403
I222
sV4465753277789317273
p1404
I1255
sV5156370773381774555
p1405
I253
sV2605430974769704433
p1406
I727
sV8708763560325368868
p1407
I1592
sV-5703183951095115476
p1408
I871
sV-2863351392293563325
p1409
I1566
sV3617227602782777289
p1410
I550
sV2409703646005059599
p1411
I322
sV1740126037981585888
p1412
I1496
sV-5935542858156478574
p1413
I1001
sV8755559346786539225
p1414
I1737
sV-3068146477308733962
p1415
I344
sV-7492106985145719459
p1416
I1489
sV2818819550873422543
p1417
I1471
sV-7160549933950402575
p1418
I636
sV8965027945689978971
p1419
I1180
sV-1510321897564962820
p1420
I1997
sV1627700927594133302
p1421
I412
sV-744588636265106420
p1422
I726
sV7084375848696637802
p1423
I141
sV637187908693888049
p1424
I330
sV-5932102625385609989
p1425
I848
sV-3689337711138901728
p1426
I530
sV-7273415486317713764
p1427
I484
sV6003831336496592001
p1428
I1960
sV-6282754433984310142
p1429
I1048
sV-7956765969654512096
p1430
I208
sV3797085517647336536
p1431
I273
sV5905055941872077172
p1432
I105
sV3009772007719204112
p1433
I1881
sV1516199613903032963
p1434
I219
sV4138657073201347687
p1435
I308
sV8138693073229347555
p1436
I769
sV-7100390008334527804
p1437
I1986
sV-1966338279544387275
p1438
I280
sV1685618881903601535
p1439
I1249
sV4899469786434878724
p1440
I1855
sV8200594842344508448
p1441
I1209
sV-4047806587665289083
p1442
I380
sV-1929640564915846432
p1443
I1778
sV10765275175571242
p1444
I47
sV-365800917376380011
p1445
I892
sV-6809079195362599432
p1446
I1432
sV5359369588772834743
p1447
I751
sV701949295768128821
p1448
I1620
sV6010787275257571576
p1449
I61
sV5607854572232625967
p1450
I179
sV-598219288744642833
p1451
I1475
sV-5307971550110056052
p1452
I151
sV-3052663234141228029
p1453
I1872
sV-4081540261748731445
p1454
I1947
sV-8388675223914479274
p1455
I26
sV-3395612187041625063
p1456
I77
sV-5389453858436958168
p1457
I1793
sV8342973438096245566
p1458
I1357
sV-2377671429476999320
p1459
I1472
sV-146867728338383595
p1460
I1491
sV821606580646429455
p1461
I933
sV-3454045075070127268
p1462
I958
sV4054009175749343326
p1463
I1665
sV-7595304912654505661
p1464
I1626
sV4634825204717668542
p1465
I464
sV-3904210248050890128
p1466
I1921
sV-6209302970466816480
p1467
I1920
sV-7036693081856171470
p1468
I730
sV-8963554618409314978
p1469
I118
sV8308599786100622347
p1470
I1562
sV8064131816828727404
p1471
I283
sV-5844864887297130495
p1472
I266
sV5475971414084036126
p1473
I975
sV-8767951075485440550
p1474
I1885
sV-7932120625439610191
p1475
I1141
sV-601365943784756897
p1476
I1955
sV-6259864339809244567
p1477
I80
sV5821099149145127900
p1478
I1632
sV-7755760251312795490
p1479
I35
sV1836555187162579672
p1480
I1600
sV-1939629710310803463
p1481
I129
sV6382915985015043807
p1482
I704
sV-7489973769578614435
p1483
I1742
sV-3228559176932703230
p1484
I155
sV4924342969990018100
p1485
I994
sV-240041917918953337
p1486
I1483
sV7580468821069307570
p1487
I1020
sV7133408858573433781
p1488
I948
sV-468770502684675821
p1489
I1205
sV8417849371287704224
p1490
I1387
sV-591874827809654669
p1491
I1501
sV-945573676653457614
p1492
I1439
sV-2484450019658444218
p1493
I1716
sV-1763510825413002970
p1494
I1811
sV4414099537132285176
p1495
I415
sV-3519446969668241763
p1496
I364
sV1361918053618377737
p1497
I262
sV7594028509049751156
p1498
I1049
sV1812995334969284166
p1499
I448
sV4373313832006480501
p1500
I1347
sV1054876766752224572
p1501
I1152
sV-7283993654004755131
p1502
I594
sV-8273296485558712517
p1503
I162
sV3610084801689226312
p1504
I1689
sV-2638813346466022112
p1505
I1896
sV-3815137940251520680
p1506
I926
sV1037023387911431229
p1507
I1821
sV-825114746136838945
p1508
I1344
sV8352857959906729837
p1509
I822
sV-5685602503393574336
p1510
I1663
sV-4312939383521141502
p1511
I1864
sV4195795391451929480
p1512
I346
sV-2744606636255106278
p1513
I1699
sV7546612901109543094
p1514
I1448
sV766832051768165842
p1515
I1034
sV-6118242661945663443
p1516
I529
sV461073897687077027
p1517
I58
sV4925324689486413355
p1518
I67
sV-4780628265863036144
p1519
I1863
sV-8091907016971478715
p1520
I1816
sV-5770137307181057796
p1521
I757
sV-5470415613430156594
p1522
I507
sV-429636223750539488
p1523
I128
sV197283758574659585
p1524
I1508
sV-6395945633142271042
p1525
I760
sV-3276544275225902971
p1526
I1378
sV4925534126353181729
p1527
I710
sV7702367835857715420
p1528
I1990
sV-6527607154405707868
p1529
I1238
sV-747962002515958563
p1530
I1979
sV-7965124443634034243
p1531
I643
sV-1778799897295902095
p1532
I723
sV3369244421450766217
p1533
I1207
sV1821708782890605889
p1534
I1426
sV-5778630938297884387
p1535
I1064
sV-7503593820279639580
p1536
I895
sV-2986674727438907115
p1537
I903
sV-9212881193929071613
p1538
I1504
sV-3951934460716379725
p1539
I1403
sV7102537040333046812
p1540
I1192
sV-2631505835963473775
p1541
I738
sV-6206436693745657677
p1542
I44
sV-4491669206292325427
p1543
I1868
sV-5476101493799111825
p1544
I1618
sV3732595370398382489
p1545
I1203
sV4376966258071255609
p1546
I1809
sV-8609111586421981129
p1547
I914
sV8476641588870267502
p1548
I53
sV-7484786128448001888
p1549
I1485
sV5370870069386720811
p1550
I84
sV6718160118244358137
p1551
I1953
sV7483087310385189621
p1552
I1358
sV2787171473654490487
p1553
I7
sV3833526104478731847
p1554
I755
sV-8486098563596716567
p1555
I888
sV-3358692269505998714
p1556
I1654
sV-807273409165680991
p1557
I1578
sV4160758010753708150
p1558
I922
sV-5513159789605014384
p1559
I566
sV4039480952417102913
p1560
I197
sV5942033904153309241
p1561
I1449
sV4637223908993888877
p1562
I509
sV-272391079030611182
p1563
I136
sV-8209651626505353779
p1564
I431
sV5010906275996572633
p1565
I252
sV5572121657225835907
p1566
I173
sV-9140852396937582232
p1567
I1231
sV7820378771178228515
p1568
I1801
sV3042294965962757528
p1569
I1977
sV7460414977820080497
p1570
I1409
sV5914441149326217509
p1571
I1329
sV-4176422902180283138
p1572
I1442
sV703579324144045970
p1573
I541
sV-7601662322270396050
p1574
I500
sV8030347819806455716
p1575
I1168
sV-4178747664009041637
p1576
I1146
sV-260764653006089998
p1577
I1865
sV8674249008302499974
p1578
I1300
sV-7169012814272124935
p1579
I1122
sV5726472656163532877
p1580
I1584
sV-1296438675909954008
p1581
I1479
sV-6911092332540613267
p1582
I1982
sV-1046296830523760923
p1583
I379
sV5821744782934605757
p1584
I1295
sV-4749298169084869151
p1585
I880
sV-2482115166690201194
p1586
I1748
sV6726696617713153281
p1587
I444
sV490895094889249343
p1588
I1316
sV7486533344878788752
p1589
I925
sV2919541457568923211
p1590
I288
sV-4277504556958806803
p1591
I1860
sV-4091858151482669277
p1592
I902
sV6264232204593613606
p1593
I1148
sV-3090002907972924303
p1594
I1261
sV1830804034504888946
p1595
I1303
sV245170073794392183
p1596
I845
sV3313675859625516103
p1597
I1088
sV-5200726113506927935
p1598
I808
sV-3239287231047622718
p1599
I1434
sV1315009618498473661
p1600
I1214
sV5244246852161070930
p1601
I323
sV-129145008166137909
p1602
I1156
sV7296682137888894474
p1603
I206
sV-7552404094855378396
p1604
I887
sV-7483215586203553366
p1605
I1876
sV-1396906697095000000
p1606
I1337
sV4393756319132924838
p1607
I446
sV-4677755972317734407
p1608
I969
sV5247920953015099584
p1609
I24
sV-3151738353564633688
p1610
I911
sV3638162940470731911
p1611
I1708
sV7948446893985702497
p1612
I1596
sV-5125145036909317713
p1613
I1493
sV-7128402373671658935
p1614
I310
sV8904735555009151318
p1615
I457
sV3804601920633030746
p1616
I85
sV-8955755936847898358
p1617
I271
sV1568371821273406570
p1618
I819
sV-2048928297371666315
p1619
I1529
sV3588426558825683351
p1620
I1288
sV7933427407380960960
p1621
I1878
sV-8300353881995851996
p1622
I1451
sV-7727523866482191789
p1623
I512
sV5953579394093512194
p1624
I393
sV-1490375857486803458
p1625
I1838
sV7924497970773019201
p1626
I1567
sV447397644319813678
p1627
I985
sV7913400407431354867
p1628
I1670
sV-3760933726347836551
p1629
I410
sV-4349610335189937101
p1630
I1962
sV5756731651366776550
p1631
I783
sV8298071112958190037
p1632
I194
sV6706204399096967608
p1633
I763
sV4483304456267238355
p1634
I1563
sV-4129149007954137465
p1635
I1890
sV4917951176751980069
p1636
I559
sV5219394751292749705
p1637
I976
sV-8191454429180787392
p1638
I1750
sV8719892509048178531
p1639
I111
sV4415415525561784599
p1640
I852
sV-7192258715316889030
p1641
I1831
sV-2068265478067735255
p1642
I1585
sV6926244324609892988
p1643
I28
sV4482402820945758152
p1644
I163
sV4715442001886462944
p1645
I60
sV-6904365249093892053
p1646
I1827
sV-2366809508980261782
p1647
I1405
sV4616259206801512351
p1648
I805
sV-6094988058243923104
p1649
I49
sV-4033240222365595136
p1650
I1237
sV244937959911721367
p1651
I1520
sV-8873311207356144485
p1652
I438
sV-8132909213241034354
p1653
I15
sV-7521397384381138775
p1654
I325
sV6416634393997402328
p1655
I1013
sV-3856154743789177934
p1656
I1847
sV-1862396277886347795
p1657
I413
sV-23625053264343968
p1658
I1319
sV4005373146530184315
p1659
I291
sV7256815922327333383
p1660
I535
sV3386710421554370087
p1661
I1645
sV4804738921410031805
p1662
I1839
sV-6093784317638569039
p1663
I1024
sV418328811539378284
p1664
I616
sV3819644721564677600
p1665
I660
sV-8945613676693457638
p1666
I1762
sV-5260649651987088163
p1667
I971
sV6613336256439380973
p1668
I989
sV-5528371788726186348
p1669
I284
sV-1633889204737016877
p1670
I1057
sV5730521719802184390
p1671
I1377
sV-4287768755595785006
p1672
I436
sV-7190905870850613172
p1673
I1243
sV-3167668871180030042
p1674
I906
sV6958607494104131034
p1675
I1915
sV-1086776593449646556
p1676
I1906
sV-3134435460809863982
p1677
I1805
sV5166023152376080980
p1678
I1499
sV4738849194894773882
p1679
I337
sV1132762216411335839
p1680
I355
sV1127459907694805235
p1681
I19
sV3867686512607885141
p1682
I1833
sV-1298289728721376820
p1683
I1657
sV-3315241959305847628
p1684
I519
sV-3374255859373786194
p1685
I553
sV949201624235522947
p1686
I1212
sV-2034168062596988170
p1687
I800
sV-3381299024709108173
p1688
I921
sV1797701934329285597
p1689
I1998
sV9122390911750307690
p1690
I836
sV4957478629964985687
p1691
I589
sV-358825977155420974
p1692
I1470
sV-8965261444411035302
p1693
I804
sV-1829585873417382293
p1694
I205
sV88534707019739220
p1695
I818
sV-3158683775760375553
p1696
I1274
sV6250588152296764472
p1697
I338
sV-2228247270302226095
p1698
I1266
sV7263346613600732510
p1699
I75
sV5202151316393223580
p1700
I607
sV7037298644597283282
p1701
I1038
sV-1520473749037658594
p1702
I335
sV1043361473087907312
p1703
I1755
sV8694289821625834555
p1704
I1072
sV1936426631796262053
p1705
I96
sV-6686716088012864449
p1706
I1130
sV-5388067101870430963
p1707
I826
sV-2523521411748733187
p1708
I699
sV-5289642852158128373
p1709
I387
sV-1715880907958721415
p1710
I72
sV-8320373689946067773
p1711
I46
sV-6981148859720148373
p1712
I1532
sV-5839832565699655443
p1713
I232
sV6929574213890444536
p1714
I373
sV4305750675950968059
p1715
I1044
sV8736568593417750581
p1716
I951
sV461436028263880214
p1717
I1047
sV-2913093524691408320
p1718
I1155
sV-2198834017210585710
p1719
I1659
sV501174938575526146
p1720
I1726
sV4350097186097565949
p1721
I248
sV-7653703019053330516
p1722
I1006
sV-6078338515107482389
p1723
I720
sV-8377411942628634656
p1724
I4
sV3253007787485187171
p1725
I504
sV-8071059233618203439
p1726
I1103
sV-6035861019586388180
p1727
I1268
sV2155175112774869721
p1728
I1731
sV3514313626604886295
p1729
I1304
sV5926107323796891757
p1730
I456
sV5405715873764971194
p1731
I1624
sV-6932528057568867609
p1732
I846
sV6844176116329675849
p1733
I973
sV8614798793761585963
p1734
I1794
sV-3432055592616082778
p1735
I1011
sV-4620747219322851425
p1736
I1674
sV-9179561545443484234
p1737
I1043
sV3010920276006572535
p1738
I477
sV3067810456941800068
p1739
I1444
sV-6346300739520814215
p1740
I1533
sV-7507096822571359314
p1741
I1324
sV3036926867604684520
p1742
I1829
sV7629234416111856945
p1743
I1956
sV-7046289575185911002
p1744
I5
sV6504465711645201248
p1745
I870
sV-1026446475374254312
p1746
I908
sV4244109851160069017
p1747
I50
sV-6149403568898773703
p1748
I1241
sV3713873141839444525
p1749
I580
sV4929368500838767949
p1750
I1454
sV2253846628644635942
p1751
I48
sV359417859466491096
p1752
I853
sV-4040879839908947110
p1753
I929
sV-8885069682816774814
p1754
I1310
sV5947293336854386967
p1755
I1433
sV-1865182682318401776
p1756
I1181
sV-6388689223924479176
p1757
I752
sV-1050994023208902753
p1758
I1007
sV852657668925964952
p1759
I788
sV3724597838339541191
p1760
I721
sV5082138874375887068
p1761
I1393
sV-1315223959315847746
p1762
I1723
sV8295464382327368710
p1763
I696
sV-2762359234746621721
p1764
I1407
sV-7202475221706481200
p1765
I1573
sV-3862493943988412715
p1766
I1270
sV4790107929558196912
p1767
I1025
sV7621209948544072707
p1768
I1041
sV-2263527763047078846
p1769
I1844
sV6493581724141198741
p1770
I1123
sV-2296774384623513526
p1771
I1211
sV9130379775893585932
p1772
I1552
sV3516675537008870086
p1773
I450
sV8505548454445236460
p1774
I1929
sV-2051131023989903826
p1775
I244
sV5947021459447809684
p1776
I427
sV-5685149382072526764
p1777
I1332
sV794249579378543643
p1778
I1008
sV8413855607660856960
p1779
I996
sV7863420741562613788
p1780
I569
sV-1091735150683667954
p1781
I674
sV5753024495996599592
p1782
I1983
sV4287430850224527380
p1783
I220
sV-1534981837265632499
p1784
I1850
sV-2627298052801704596
p1785
I1928
sV-2711304591685155515
p1786
I1558
sV-7720011455952398211
p1787
I1185
sV-4324468162930245863
p1788
I1458
sV8708752360243767625
p1789
I1473
sV-8229741297693398188
p1790
I1191
sV-3717741907951064981
p1791
I176
sV2269742446020584054
p1792
I1869
sV-9079470749530129591
p1793
I854
sV4978402514041141532
p1794
I1939
sV8939629250892191652
p1795
I81
sV-1918603044132414919
p1796
I608
sV4837684718742000390
p1797
I478
sV-5273197481621614579
p1798
I1284
sV4836843257444966243
p1799
I841
sV2853317843458689854
p1800
I786
sV-7986077887193730895
p1801
I1353
sV-1964167534274656346
p1802
I889
sV9059610977317352399
p1803
I939
sV-5595879090352905906
p1804
I1056
sV2545990029501556303
p1805
I238
sV-7831006970405086046
p1806
I212
sV-7074211991214451843
p1807
I1083
sV7461031052158017715
p1808
I83
sV1245968097376795823
p1809
I1004
sV-6076847073309671938
p1810
I1220
sV1685127048144178754
p1811
I1420
sV5626661657638885119
p1812
I1507
sV2493976369613713098
p1813
I1908
sV-5421686840411739502
p1814
I1430
sV-4847411431971122436
p1815
I112
sV2184408420667115619
p1816
I653
sV9069451131871918127
p1817
I14
sV-4161232106162110292
p1818
I1930
sV-9035795297707480288
p1819
I1206
sV-1538889947190981142
p1820
I1771
sV1454068188007247787
p1821
I359
sV7636490825137648383
p1822
I1488
sV-7517165859759106844
p1823
I770
sV-2225963092592501897
p1824
I1681
sV-7129272008741138808
p1825
I8
sV827957941427433969
p1826
I490
sV5818382893362053755
p1827
I1710
sV3950343097199599450
p1828
I277
sV-9061828969851678390
p1829
I1650
sV6038661761506862294
p1830
I858
sV5860709468180973459
p1831
I1326
sV-4931965624608608932
p1832
I11
sV4069111171644921459
p1833
I1782
sV-8261875436896588399
p1834
I138
sV3752082673944586531
p1835
I1733
sV7595559184779647650
p1836
I1751
sV-4315378960086848699
p1837
I276
sV-7468440516386812822
p1838
I654
sV929552214112445114
p1839
I93
sV-1713991590099499492
p1840
I1539
sV-7057974542385626232
p1841
I389
sV5184213573444025305
p1842
I293
sV-3708317668645277943
p1843
I833
sV4810639854700527658
p1844
I1497
sV-815198876455192216
p1845
I119
sV-465527815784376703
p1846
I1656
sV-8402615280886071963
p1847
I1461
sV461773686652496701
p1848
I646
sV5061825951620102967
p1849
I1736
sV-9135942013846644865
p1850
I425
sV-4741393399987719483
p1851
I447
sV-6517930494079585324
p1852
I648
sV-7301680710575105489
p1853
I1944
sV-2147515486275286277
p1854
I1227
sV-6175062003741472300
p1855
I1179
sV4046496764963548976
p1856
I1572
sV-6596826271593118393
p1857
I631
sV-5773269986924675698
p1858
I1601
sV7347858809625731174
p1859
I639
sV6569012000551779051
p1860
I1900
sV-282465978976186486
p1861
I269
sV8595696185560648723
p1862
I1218
sV3746420612845027050
p1863
I1622
sV7756633728210171144
p1864
I532
sV1206356642865167537
p1865
I834
sV1867700512809885443
p1866
I837
sV-4513595997331796355
p1867
I1616
sV-4480048862397337587
p1868
I793
sV413439106341806001
p1869
I595
sV-7308850312940048311
p1870
I574
sV-985918886318729368
p1871
I1822
sV-1991783242057111803
p1872
I1110
sV5946584214253337859
p1873
I1580
sV8932881972353694103
p1874
I1173
sV-889305800681925481
p1875
I1830
sV6571758612764814199
p1876
I1366
sV-8314147124186495753
p1877
I342
sV-1950281665227851925
p1878
I442
sV-5276739922638328515
p1879
I234
sV7812202290035421510
p1880
I634
sV1200263233485735432
p1881
I1196
sV395119817510087182
p1882
I1611
sV-1962878356219717823
p1883
I1121
sV-3706981066449000502
p1884
I1757
sV-360384494934733643
p1885
I1134
sV3395688050394648705
p1886
I157
sV630831651100348477
p1887
I353
sV3094293898602238746
p1888
I1299
sV-159483088220219835
p1889
I237
sV1358721120864681533
p1890
I642
sV-9042319505331818906
p1891
I942
sV-3291559261920410222
p1892
I961
sV-7388356979267008104
p1893
I167
sV-1240792551973430931
p1894
I1687
sV-1365937918157381084
p1895
I1761
sV3756597728166171300
p1896
I1002
sV3160598848269833883
p1897
I1395
sV-982546890824575042
p1898
I240
sV-8083178479064909945
p1899
I445
sV-7483543763655495143
p1900
I591
sV-4035035703637267442
p1901
I368
sV-4757324986659053904
p1902
I1390
sV7460701391128569030
p1903
I624
sV3401083608475308196
p1904
I1996
sV7397800594994209068
p1905
I1428
sV4702119494763791392
p1906
I632
sV-2819800414696664771
p1907
I1629
sV-5521192594818987848
p1908
I1715
sV8359524589555835842
p1909
I1135
sV-2644663447358037130
p1910
I1547
sV4221221164136980100
p1911
I1053
sV-5898042623189598071
p1912
I1460
sV5713014937920165769
p1913
I45
sV-6283425693557299769
p1914
I496
sV-6758942141122113907
p1915
I1365
sV-2724031079357275465
p1916
I1356
sV-276421274438901622
p1917
I814
sV-1964490991768378771
p1918
I1695
sV-5599700847208221405
p1919
I1828
sV-7071261048854153122
p1920
I411
sV-2945591676659457448
p1921
I101
sV-6595993041154510107
p1922
I719
sV-8577537092594110418
p1923
I1964
sV130333997183751313
p1924
I453
sV-1689319711084901730
p1925
I202
sV-660758538837054786
p1926
I1941
sV7936068733703908459
p1927
I517
sV1026888672378692933
p1928
I982
sV5190476938344202375
p1929
I324
sV3414266676439227853
p1930
I1320
sV-2137715778200077463
p1931
I414
sV-5090531322583414664
p1932
I1481
sV-6032657214426631468
p1933
I907
sV-5292942471963059053
p1934
I1398
sV-5265476641576484497
p1935
I117
sV-8177829350826196308
p1936
I332
sV-4182785338248771093
p1937
I1060
sV3905069941818076706
p1938
I620
sV6182995394588967366
p1939
I1537
sV-2373633737287737773
p1940
I1510
sV6136403420715230873
p1941
I64
sV-7578315642593364536
p1942
I1069
sV6696888779902697750
p1943
I1692
sV-8930028685451892597
p1944
I963
sV-3648949148370823486
p1945
I1250
sV6050797118662646484
p1946
I1701
sV2457765753528575807
p1947
I1289
sV-1980876636979981304
p1948
I748
sV3184436881335535852
p1949
I1498
sV3257681557352812938
p1950
I156
sV-3835759376917652833
p1951
I1216
sV3060490612540832338
p1952
I181
sV-9071279048844153004
p1953
I433
sV8794289579418543667
p1954
I313
sV5805762942747256642
p1955
I1925
sV-839691564858654120
p1956
I365
sV7301517388567833702
p1957
I988
sV6885406542446231991
p1958
I376
sV7413344850500955337
p1959
I1931
sV2063575091370043114
p1960
I327
sV6387087975193770559
p1961
I1802
sV-6315309392483863834
p1962
I1466
sV-1191558361922411092
p1963
I869
sV4490622415459881951
p1964
I945
sV6943357686311161881
p1965
I1161
sV-7936478422771207620
p1966
I713
sV2358602120077680332
p1967
I1799
sV-1304753272343710201
p1968
I381
sV-7377977482151854926
p1969
I946
sV-8345568006997976676
p1970
I1133
sV6797754925234728042
p1971
I328
sV518747274885843149
p1972
I979
sV-5997976963484475428
p1973
I847
sV7347583870493810379
p1974
I1789
sV-6748914495015758455
p1975
I10
sV-9176307901497282391
p1976
I408
sV-8541903517951398969
p1977
I602
sV5956877252529086741
p1978
I385
sV-7074431704504128900
p1979
I1269
sV2152720316933993716
p1980
I1728
sV-4742244214314968766
p1981
I1691
sV9065926021602280000
p1982
I552
sV-3388534223137478077
p1983
I32
sV-6396968224948153401
p1984
I87
sV7478652512733220686
p1985
I1970
sV-922729887773674204
p1986
I1306
sV-4771703280956337845
p1987
I1959
sV2929797094746327749
p1988
I459
sV-1953157642467237515
p1989
I1735
sV-3841500937953087637
p1990
I718
sV5531373574865393154
p1991
I1958
sV-1337962690305221735
p1992
I1798
sV5707939385348112587
p1993
I974
sV-165795973545465285
p1994
I1221
sV-8129153007982137565
p1995
I126
sV9128959745023160305
p1996
I840
sV-4498992365827597394
p1997
I1036
sV-5064872869819184144
p1998
I1190
sV-8851453106026851602
p1999
I1954
s(dp2000
I0
g1241
sI1
g32
sI2
g1383
sI3
g56
sI4
g1724
sI5
g1744
sI6
g343
sI7
g1553
sI8
g1825
sI9
g784
sI10
g1975
sI11
g1832
sI12
g260
sI13
g837
sI14
g1817
sI15
g1653
sI16
g790
sI17
g384
sI18
g1086
sI19
g1681
sI20
g960
sI21
g265
sI22
g996
sI23
g177
sI24
g1609
sI25
g963
sI26
g1455
sI27
g508
sI28
g1643
sI29
g315
sI30
g163
sI31
g1263
sI32
g1983
sI33
g898
sI34
g499
sI35
g1479
sI36
g1011
sI37
g1295
sI38
g382
sI39
g864
sI40
g313
sI41
g386
sI42
g255
sI43
g1324
sI44
g1542
sI45
g1913
sI46
g1711
sI47
g1444
sI48
g1751
sI49
g1649
sI50
g1747
sI51
g1046
sI52
g504
sI53
g1548
sI54
g427
sI55
g1351
sI56
g85
sI57
g1019
sI58
g1517
sI59
g283
sI60
g1645
sI61
g1449
sI62
g450
sI63
g617
sI64
g1941
sI65
g1165
sI66
g112
sI67
g1518
sI68
g1032
sI69
g818
sI70
g752
sI71
g1171
sI72
g1710
sI73
g457
sI74
g1007
sI75
g1699
sI76
g860
sI77
g1456
sI78
g831
sI79
g571
sI80
g1477
sI81
g1795
sI82
g501
sI83
g1808
sI84
g1550
sI85
g1616
sI86
g1307
sI87
g1984
sI88
g452
sI89
g1196
sI90
g191
sI91
g518
sI92
g1066
sI93
g1839
sI94
g282
sI95
g36
sI96
g1705
sI97
g613
sI98
g1005
sI99
g259
sI100
g298
sI101
g1921
sI102
g398
sI103
g1140
sI104
g663
sI105
g1432
sI106
g987
sI107
g1028
sI108
g998
sI109
g1291
sI110
g383
sI111
g1639
sI112
g1815
sI113
g1071
sI114
g53
sI115
g39
sI116
g110
sI117
g1935
sI118
g1469
sI119
g1845
sI120
g665
sI121
g951
sI122
g524
sI123
g880
sI124
g1123
sI125
g440
sI126
g1995
sI127
g322
sI128
g1523
sI129
g1481
sI130
g882
sI131
g120
sI132
g1397
sI133
g653
sI134
g1172
sI135
g758
sI136
g1563
sI137
g330
sI138
g1834
sI139
g356
sI140
g886
sI141
g1423
sI142
g118
sI143
g1257
sI144
g1015
sI145
g82
sI146
g781
sI147
g481
sI148
g773
sI149
g272
sI150
g911
sI151
g1452
sI152
g901
sI153
g130
sI154
g31
sI155
g1484
sI156
g1950
sI157
g1886
sI158
g297
sI159
g209
sI160
g196
sI161
g986
sI162
g1503
sI163
g1644
sI164
g413
sI165
g340
sI166
g1223
sI167
g1893
sI168
g399
sI169
g1314
sI170
g446
sI171
g706
sI172
g1204
sI173
g1566
sI174
g554
sI175
g988
sI176
g1791
sI177
g802
sI178
g1237
sI179
g1450
sI180
g208
sI181
g1952
sI182
g855
sI183
g1022
sI184
g366
sI185
g680
sI186
g974
sI187
g288
sI188
g1334
sI189
g1337
sI190
g425
sI191
g505
sI192
g1128
sI193
g853
sI194
g1632
sI195
g27
sI196
g670
sI197
g1560
sI198
g1085
sI199
g727
sI200
g1025
sI201
g1373
sI202
g1925
sI203
g186
sI204
g1078
sI205
g1694
sI206
g1603
sI207
g511
sI208
g1430
sI209
g240
sI210
g871
sI211
g407
sI212
g1806
sI213
g103
sI214
g765
sI215
g826
sI216
g906
sI217
g485
sI218
g943
sI219
g1434
sI220
g1783
sI221
g619
sI222
g1403
sI223
g22
sI224
g1309
sI225
g246
sI226
g443
sI227
g743
sI228
g1047
sI229
g1008
sI230
g608
sI231
g1208
sI232
g1713
sI233
g1370
sI234
g1879
sI235
g1058
sI236
g921
sI237
g1889
sI238
g1805
sI239
g1120
sI240
g1898
sI241
g294
sI242
g1283
sI243
g274
sI244
g1775
sI245
g50
sI246
g1282
sI247
g1327
sI248
g1721
sI249
g565
sI250
g840
sI251
g451
sI252
g1565
sI253
g1405
sI254
g509
sI255
g151
sI256
g314
sI257
g842
sI258
g1103
sI259
g266
sI260
g254
sI261
g563
sI262
g1497
sI263
g1318
sI264
g756
sI265
g243
sI266
g1472
sI267
g975
sI268
g46
sI269
g1861
sI270
g716
sI271
g1617
sI272
g276
sI273
g1431
sI274
g816
sI275
g869
sI276
g1837
sI277
g1828
sI278
g588
sI279
g739
sI280
g1438
sI281
g54
sI282
g1091
sI283
g1471
sI284
g1669
sI285
g702
sI286
g376
sI287
g789
sI288
g1590
sI289
g751
sI290
g742
sI291
g1659
sI292
g775
sI293
g1842
sI294
g1102
sI295
g159
sI296
g367
sI297
g1269
sI298
g1023
sI299
g750
sI300
g922
sI301
g908
sI302
g675
sI303
g1024
sI304
g1059
sI305
g33
sI306
g993
sI307
g426
sI308
g1435
sI309
g406
sI310
g1614
sI311
g1265
sI312
g107
sI313
g1954
sI314
g676
sI315
g945
sI316
g989
sI317
g994
sI318
g1390
sI319
g770
sI320
g1395
sI321
g745
sI322
g1411
sI323
g1601
sI324
g1929
sI325
g1654
sI326
g1144
sI327
g1960
sI328
g1971
sI329
g767
sI330
g1424
sI331
g108
sI332
g1936
sI333
g55
sI334
g848
sI335
g1702
sI336
g1207
sI337
g1679
sI338
g1697
sI339
g183
sI340
g153
sI341
g1388
sI342
g1877
sI343
g124
sI344
g1415
sI345
g416
sI346
g1512
sI347
g832
sI348
g927
sI349
g1139
sI350
g95
sI351
g351
sI352
g1136
sI353
g1887
sI354
g337
sI355
g1680
sI356
g390
sI357
g321
sI358
g40
sI359
g1821
sI360
g135
sI361
g640
sI362
g657
sI363
g369
sI364
g1496
sI365
g1956
sI366
g1294
sI367
g712
sI368
g1901
sI369
g728
sI370
g449
sI371
g867
sI372
g11
sI373
g1714
sI374
g909
sI375
g902
sI376
g1958
sI377
g1142
sI378
g833
sI379
g1583
sI380
g1442
sI381
g1968
sI382
g377
sI383
g458
sI384
g903
sI385
g1978
sI386
g1238
sI387
g1709
sI388
g19
sI389
g1841
sI390
g168
sI391
g453
sI392
g815
sI393
g1624
sI394
g904
sI395
g1179
sI396
g839
sI397
g843
sI398
g1107
sI399
g474
sI400
g342
sI401
g1297
sI402
g1343
sI403
g231
sI404
g1249
sI405
g923
sI406
g1069
sI407
g326
sI408
g1976
sI409
g1242
sI410
g1629
sI411
g1920
sI412
g1421
sI413
g1657
sI414
g1931
sI415
g1495
sI416
g364
sI417
g677
sI418
g339
sI419
g280
sI420
g928
sI421
g683
sI422
g1210
sI423
g965
sI424
g1187
sI425
g1850
sI426
g777
sI427
g1776
sI428
g378
sI429
g698
sI430
g1113
sI431
g1564
sI432
g561
sI433
g1953
sI434
g97
sI435
g772
sI436
g1672
sI437
g1030
sI438
g1652
sI439
g64
sI440
g632
sI441
g1209
sI442
g1878
sI443
g643
sI444
g1587
sI445
g1899
sI446
g1607
sI447
g1851
sI448
g1499
sI449
g1067
sI450
g1773
sI451
g345
sI452
g12
sI453
g1924
sI454
g980
sI455
g1002
sI456
g1730
sI457
g1615
sI458
g477
sI459
g1988
sI460
g1220
sI461
g597
sI462
g635
sI463
g828
sI464
g1465
sI465
g442
sI466
g695
sI467
g495
sI468
g91
sI469
g746
sI470
g1182
sI471
g1259
sI472
g1079
sI473
g89
sI474
g284
sI475
g1145
sI476
g669
sI477
g1738
sI478
g1797
sI479
g1248
sI480
g1051
sI481
g674
sI482
g1386
sI483
g307
sI484
g1427
sI485
g129
sI486
g444
sI487
g178
sI488
g1148
sI489
g1243
sI490
g1826
sI491
g1330
sI492
g385
sI493
g148
sI494
g264
sI495
g115
sI496
g1914
sI497
g791
sI498
g874
sI499
g1116
sI500
g1574
sI501
g1178
sI502
g229
sI503
g325
sI504
g1725
sI505
g641
sI506
g99
sI507
g1522
sI508
g48
sI509
g1562
sI510
g520
sI511
g1087
sI512
g1623
sI513
g1039
sI514
g1278
sI515
g1031
sI516
g771
sI517
g1927
sI518
g722
sI519
g1684
sI520
g1261
sI521
g709
sI522
g673
sI523
g25
sI524
g570
sI525
g1076
sI526
g1125
sI527
g81
sI528
g1206
sI529
g1516
sI530
g1426
sI531
g63
sI532
g1864
sI533
g1093
sI534
g868
sI535
g1660
sI536
g104
sI537
g1073
sI538
g1038
sI539
g194
sI540
g697
sI541
g1573
sI542
g1292
sI543
g956
sI544
g560
sI545
g888
sI546
g140
sI547
g1323
sI548
g732
sI549
g1299
sI550
g1410
sI551
g51
sI552
g1982
sI553
g1685
sI554
g66
sI555
g1156
sI556
g978
sI557
g290
sI558
g738
sI559
g1636
sI560
g199
sI561
g1159
sI562
g1266
sI563
g577
sI564
g98
sI565
g961
sI566
g1559
sI567
g497
sI568
g49
sI569
g1780
sI570
g887
sI571
g1239
sI572
g1083
sI573
g884
sI574
g1870
sI575
g741
sI576
g699
sI577
g460
sI578
g157
sI579
g553
sI580
g1749
sI581
g982
sI582
g319
sI583
g660
sI584
g645
sI585
g538
sI586
g782
sI587
g1236
sI588
g43
sI589
g1691
sI590
g275
sI591
g1900
sI592
g128
sI593
g1106
sI594
g1502
sI595
g1869
sI596
g543
sI597
g983
sI598
g1348
sI599
g1146
sI600
g57
sI601
g1129
sI602
g1977
sI603
g976
sI604
g719
sI605
g1375
sI606
g447
sI607
g1700
sI608
g1796
sI609
g834
sI610
g29
sI611
g1325
sI612
g219
sI613
g1345
sI614
g167
sI615
g925
sI616
g1664
sI617
g180
sI618
g175
sI619
g465
sI620
g1938
sI621
g1389
sI622
g498
sI623
g1070
sI624
g1903
sI625
g482
sI626
g724
sI627
g469
sI628
g861
sI629
g997
sI630
g331
sI631
g1857
sI632
g1906
sI633
g1368
sI634
g1880
sI635
g562
sI636
g1418
sI637
g704
sI638
g809
sI639
g1859
sI640
g574
sI641
g1195
sI642
g1890
sI643
g1531
sI644
g970
sI645
g500
sI646
g1848
sI647
g939
sI648
g1852
sI649
g806
sI650
g1293
sI651
g1115
sI652
g137
sI653
g1816
sI654
g1838
sI655
g334
sI656
g667
sI657
g734
sI658
g1308
sI659
g779
sI660
g1665
sI661
g381
sI662
g10
sI663
g694
sI664
g41
sI665
g47
sI666
g489
sI667
g1230
sI668
g1358
sI669
g1393
sI670
g1104
sI671
g523
sI672
g621
sI673
g411
sI674
g1781
sI675
g803
sI676
g278
sI677
g924
sI678
g1082
sI679
g595
sI680
g225
sI681
g1205
sI682
g182
sI683
g793
sI684
g1350
sI685
g1096
sI686
g1319
sI687
g1105
sI688
g1180
sI689
g228
sI690
g1250
sI691
g1095
sI692
g689
sI693
g1234
sI694
g895
sI695
g476
sI696
g1763
sI697
g405
sI698
g26
sI699
g1708
sI700
g883
sI701
g1281
sI702
g821
sI703
g1077
sI704
g1482
sI705
g1197
sI706
g245
sI707
g78
sI708
g910
sI709
g735
sI710
g1527
sI711
g28
sI712
g9
sI713
g1966
sI714
g715
sI715
g1288
sI716
g859
sI717
g620
sI718
g1990
sI719
g1922
sI720
g1723
sI721
g1760
sI722
g309
sI723
g1532
sI724
g1112
sI725
g492
sI726
g1422
sI727
g1406
sI728
g1147
sI729
g1121
sI730
g1468
sI731
g1211
sI732
g459
sI733
g850
sI734
g1240
sI735
g329
sI736
g146
sI737
g122
sI738
g1541
sI739
g972
sI740
g1279
sI741
g123
sI742
g380
sI743
g302
sI744
g21
sI745
g249
sI746
g415
sI747
g1003
sI748
g1948
sI749
g432
sI750
g1101
sI751
g1447
sI752
g1757
sI753
g780
sI754
g155
sI755
g1554
sI756
g347
sI757
g1521
sI758
g686
sI759
g760
sI760
g1525
sI761
g753
sI762
g310
sI763
g1633
sI764
g808
sI765
g546
sI766
g320
sI767
g615
sI768
g1306
sI769
g1436
sI770
g1823
sI771
g1124
sI772
g2
sI773
g187
sI774
g437
sI775
g941
sI776
g1246
sI777
g197
sI778
g1203
sI779
g139
sI780
g1189
sI781
g466
sI782
g707
sI783
g1631
sI784
g897
sI785
g946
sI786
g1800
sI787
g1
sI788
g1759
sI789
g1194
sI790
g747
sI791
g1347
sI792
g470
sI793
g1868
sI794
g856
sI795
g814
sI796
g1296
sI797
g396
sI798
g920
sI799
g533
sI800
g1687
sI801
g408
sI802
g1218
sI803
g950
sI804
g1693
sI805
g1648
sI806
g914
sI807
g150
sI808
g1598
sI809
g306
sI810
g236
sI811
g1328
sI812
g1163
sI813
g324
sI814
g1917
sI815
g838
sI816
g1037
sI817
g1199
sI818
g1695
sI819
g1618
sI820
g1177
sI821
g655
sI822
g1509
sI823
g253
sI824
g947
sI825
g65
sI826
g1707
sI827
g461
sI828
g289
sI829
g67
sI830
g799
sI831
g592
sI832
g3
sI833
g1843
sI834
g1865
sI835
g341
sI836
g1690
sI837
g1866
sI838
g1065
sI839
g628
sI840
g1996
sI841
g1799
sI842
g68
sI843
g141
sI844
g794
sI845
g1596
sI846
g1732
sI847
g1973
sI848
g1425
sI849
g190
sI850
g401
sI851
g4
sI852
g1640
sI853
g1752
sI854
g1793
sI855
g1372
sI856
g1235
sI857
g463
sI858
g1830
sI859
g759
sI860
g83
sI861
g1185
sI862
g1354
sI863
g1286
sI864
g654
sI865
g394
sI866
g188
sI867
g1057
sI868
g1154
sI869
g1963
sI870
g1745
sI871
g1408
sI872
g1231
sI873
g418
sI874
g572
sI875
g1010
sI876
g935
sI877
g304
sI878
g295
sI879
g455
sI880
g1585
sI881
g13
sI882
g627
sI883
g1198
sI884
g740
sI885
g1255
sI886
g581
sI887
g1604
sI888
g1555
sI889
g1802
sI890
g1233
sI891
g723
sI892
g1445
sI893
g666
sI894
g1342
sI895
g1536
sI896
g1280
sI897
g467
sI898
g992
sI899
g558
sI900
g1254
sI901
g519
sI902
g1592
sI903
g1537
sI904
g776
sI905
g1312
sI906
g1674
sI907
g1933
sI908
g1746
sI909
g690
sI910
g1099
sI911
g1610
sI912
g854
sI913
g664
sI914
g1547
sI915
g625
sI916
g161
sI917
g829
sI918
g557
sI919
g1074
sI920
g299
sI921
g1688
sI922
g1558
sI923
g1111
sI924
g949
sI925
g1589
sI926
g1506
sI927
g1017
sI928
g242
sI929
g1753
sI930
g1382
sI931
g203
sI932
g210
sI933
g1461
sI934
g1215
sI935
g1305
sI936
g1355
sI937
g121
sI938
g336
sI939
g1803
sI940
g991
sI941
g184
sI942
g1891
sI943
g119
sI944
g878
sI945
g1964
sI946
g1969
sI947
g1202
sI948
g1488
sI949
g96
sI950
g1369
sI951
g1716
sI952
g729
sI953
g1155
sI954
g1394
sI955
g1335
sI956
g202
sI957
g1380
sI958
g1462
sI959
g1169
sI960
g705
sI961
g1892
sI962
g131
sI963
g1944
sI964
g755
sI965
g1276
sI966
g392
sI967
g1048
sI968
g885
sI969
g1608
sI970
g1268
sI971
g1667
sI972
g606
sI973
g1733
sI974
g1993
sI975
g1473
sI976
g1637
sI977
g648
sI978
g1021
sI979
g1972
sI980
g1042
sI981
g559
sI982
g1928
sI983
g234
sI984
g80
sI985
g1627
sI986
g721
sI987
g893
sI988
g1957
sI989
g1668
sI990
g890
sI991
g634
sI992
g1256
sI993
g525
sI994
g1485
sI995
g247
sI996
g1779
sI997
g1315
sI998
g863
sI999
g693
sI1000
g1133
sI1001
g1413
sI1002
g1896
sI1003
g537
sI1004
g1809
sI1005
g1365
sI1006
g1722
sI1007
g1758
sI1008
g1778
sI1009
g1392
sI1010
g552
sI1011
g1735
sI1012
g218
sI1013
g1655
sI1014
g1353
sI1015
g248
sI1016
g472
sI1017
g241
sI1018
g936
sI1019
g918
sI1020
g1487
sI1021
g389
sI1022
g1381
sI1023
g629
sI1024
g1663
sI1025
g1767
sI1026
g1062
sI1027
g1166
sI1028
g268
sI1029
g1273
sI1030
g445
sI1031
g955
sI1032
g1138
sI1033
g1399
sI1034
g1515
sI1035
g212
sI1036
g1997
sI1037
g582
sI1038
g1701
sI1039
g1232
sI1040
g637
sI1041
g1768
sI1042
g136
sI1043
g1737
sI1044
g1715
sI1045
g379
sI1046
g360
sI1047
g1717
sI1048
g1429
sI1049
g1498
sI1050
g1006
sI1051
g813
sI1052
g93
sI1053
g1911
sI1054
g748
sI1055
g176
sI1056
g1804
sI1057
g1670
sI1058
g527
sI1059
g1029
sI1060
g1937
sI1061
g536
sI1062
g679
sI1063
g1302
sI1064
g1535
sI1065
g214
sI1066
g691
sI1067
g512
sI1068
g984
sI1069
g1942
sI1070
g204
sI1071
g127
sI1072
g1704
sI1073
g618
sI1074
g696
sI1075
g737
sI1076
g1164
sI1077
g812
sI1078
g744
sI1079
g1224
sI1080
g126
sI1081
g555
sI1082
g200
sI1083
g1807
sI1084
g804
sI1085
g1109
sI1086
g250
sI1087
g521
sI1088
g1597
sI1089
g1377
sI1090
g17
sI1091
g1167
sI1092
g1217
sI1093
g684
sI1094
g424
sI1095
g930
sI1096
g1094
sI1097
g1075
sI1098
g374
sI1099
g720
sI1100
g73
sI1101
g1357
sI1102
g919
sI1103
g1726
sI1104
g1149
sI1105
g271
sI1106
g825
sI1107
g352
sI1108
g160
sI1109
g900
sI1110
g1872
sI1111
g1000
sI1112
g604
sI1113
g235
sI1114
g979
sI1115
g1221
sI1116
g1349
sI1117
g1289
sI1118
g934
sI1119
g931
sI1120
g215
sI1121
g1883
sI1122
g1579
sI1123
g1770
sI1124
g30
sI1125
g545
sI1126
g292
sI1127
g227
sI1128
g953
sI1129
g805
sI1130
g1706
sI1131
g273
sI1132
g736
sI1133
g1970
sI1134
g1885
sI1135
g1909
sI1136
g371
sI1137
g1264
sI1138
g1225
sI1139
g1186
sI1140
g774
sI1141
g1475
sI1142
g224
sI1143
g616
sI1144
g267
sI1145
g72
sI1146
g1576
sI1147
g397
sI1148
g1593
sI1149
g517
sI1150
g422
sI1151
g373
sI1152
g1501
sI1153
g417
sI1154
g486
sI1155
g1718
sI1156
g1602
sI1157
g1311
sI1158
g357
sI1159
g579
sI1160
g601
sI1161
g1965
sI1162
g35
sI1163
g143
sI1164
g841
sI1165
g1227
sI1166
g404
sI1167
g173
sI1168
g1575
sI1169
g1161
sI1170
g1216
sI1171
g1049
sI1172
g703
sI1173
g1874
sI1174
g90
sI1175
g1251
sI1176
g515
sI1177
g1310
sI1178
g1341
sI1179
g1855
sI1180
g1419
sI1181
g1756
sI1182
g305
sI1183
g1301
sI1184
g1157
sI1185
g1787
sI1186
g652
sI1187
g873
sI1188
g905
sI1189
g1367
sI1190
g1998
sI1191
g1790
sI1192
g1540
sI1193
g587
sI1194
g488
sI1195
g968
sI1196
g1881
sI1197
g1200
sI1198
g795
sI1199
g134
sI1200
g858
sI1201
g846
sI1202
g534
sI1203
g1545
sI1204
g1303
sI1205
g1489
sI1206
g1819
sI1207
g1533
sI1208
g34
sI1209
g1441
sI1210
g671
sI1211
g1771
sI1212
g1686
sI1213
g114
sI1214
g1600
sI1215
g681
sI1216
g1951
sI1217
g933
sI1218
g1862
sI1219
g824
sI1220
g1810
sI1221
g1994
sI1222
g216
sI1223
g594
sI1224
g1228
sI1225
g797
sI1226
g1168
sI1227
g1854
sI1228
g607
sI1229
g852
sI1230
g1317
sI1231
g1567
sI1232
g585
sI1233
g567
sI1234
g549
sI1235
g599
sI1236
g106
sI1237
g1650
sI1238
g1529
sI1239
g1190
sI1240
g573
sI1241
g1748
sI1242
g109
sI1243
g1673
sI1244
g45
sI1245
g916
sI1246
g726
sI1247
g1244
sI1248
g1313
sI1249
g1439
sI1250
g1945
sI1251
g556
sI1252
g303
sI1253
g798
sI1254
g1127
sI1255
g1404
sI1256
g158
sI1257
g263
sI1258
g584
sI1259
g1277
sI1260
g1009
sI1261
g1594
sI1262
g1271
sI1263
g316
sI1264
g718
sI1265
g237
sI1266
g1698
sI1267
g623
sI1268
g1727
sI1269
g1979
sI1270
g1766
sI1271
g644
sI1272
g189
sI1273
g678
sI1274
g1696
sI1275
g355
sI1276
g185
sI1277
g1222
sI1278
g1013
sI1279
g332
sI1280
g1384
sI1281
g79
sI1282
g162
sI1283
g787
sI1284
g1798
sI1285
g1378
sI1286
g668
sI1287
g287
sI1288
g1620
sI1289
g1947
sI1290
g603
sI1291
g610
sI1292
g568
sI1293
g344
sI1294
g1176
sI1295
g1584
sI1296
g279
sI1297
g958
sI1298
g1119
sI1299
g1888
sI1300
g1578
sI1301
g586
sI1302
g578
sI1303
g1595
sI1304
g1729
sI1305
g170
sI1306
g1986
sI1307
g439
sI1308
g1226
sI1309
g685
sI1310
g1754
sI1311
g154
sI1312
g61
sI1313
g419
sI1314
g957
sI1315
g891
sI1316
g1588
sI1317
g845
sI1318
g206
sI1319
g1658
sI1320
g1930
sI1321
g1298
sI1322
g952
sI1323
g827
sI1324
g1741
sI1325
g881
sI1326
g1831
sI1327
g1068
sI1328
g76
sI1329
g1571
sI1330
g1344
sI1331
g312
sI1332
g1777
sI1333
g626
sI1334
g1304
sI1335
g569
sI1336
g412
sI1337
g1606
sI1338
g92
sI1339
g926
sI1340
g1326
sI1341
g786
sI1342
g785
sI1343
g940
sI1344
g1508
sI1345
g551
sI1346
g1362
sI1347
g1500
sI1348
g522
sI1349
g807
sI1350
g251
sI1351
g529
sI1352
g962
sI1353
g1801
sI1354
g471
sI1355
g866
sI1356
g1916
sI1357
g1458
sI1358
g1552
sI1359
g1141
sI1360
g291
sI1361
g819
sI1362
g1162
sI1363
g1332
sI1364
g999
sI1365
g1915
sI1366
g1876
sI1367
g1229
sI1368
g844
sI1369
g18
sI1370
g308
sI1371
g20
sI1372
g1137
sI1373
g1056
sI1374
g478
sI1375
g531
sI1376
g915
sI1377
g1671
sI1378
g1526
sI1379
g349
sI1380
g977
sI1381
g550
sI1382
g1097
sI1383
g1359
sI1384
g661
sI1385
g990
sI1386
g1401
sI1387
g1490
sI1388
g913
sI1389
g763
sI1390
g1902
sI1391
g711
sI1392
g1150
sI1393
g1761
sI1394
g985
sI1395
g1897
sI1396
g1044
sI1397
g896
sI1398
g1934
sI1399
g730
sI1400
g487
sI1401
g1020
sI1402
g193
sI1403
g1539
sI1404
g244
sI1405
g1647
sI1406
g948
sI1407
g1764
sI1408
g639
sI1409
g1570
sI1410
g1080
sI1411
g1316
sI1412
g792
sI1413
g1193
sI1414
g142
sI1415
g333
sI1416
g870
sI1417
g37
sI1418
g393
sI1419
g490
sI1420
g1811
sI1421
g24
sI1422
g328
sI1423
g532
sI1424
g156
sI1425
g262
sI1426
g1534
sI1427
g687
sI1428
g1905
sI1429
g857
sI1430
g1814
sI1431
g688
sI1432
g1446
sI1433
g1755
sI1434
g1599
sI1435
g1131
sI1436
g1160
sI1437
g778
sI1438
g1064
sI1439
g1492
sI1440
g258
sI1441
g1153
sI1442
g1572
sI1443
g434
sI1444
g1739
sI1445
g1043
sI1446
g217
sI1447
g700
sI1448
g1514
sI1449
g1561
sI1450
g656
sI1451
g1622
sI1452
g894
sI1453
g769
sI1454
g1750
sI1455
g1376
sI1456
g566
sI1457
g1081
sI1458
g1788
sI1459
g1274
sI1460
g1912
sI1461
g1847
sI1462
g1336
sI1463
g1026
sI1464
g749
sI1465
g1285
sI1466
g1962
sI1467
g152
sI1468
g420
sI1469
g651
sI1470
g1692
sI1471
g1417
sI1472
g1459
sI1473
g1789
sI1474
g14
sI1475
g1451
sI1476
g1247
sI1477
g1089
sI1478
g692
sI1479
g1581
sI1480
g1158
sI1481
g1932
sI1482
g195
sI1483
g1486
sI1484
g323
sI1485
g1549
sI1486
g346
sI1487
g1253
sI1488
g1822
sI1489
g1416
sI1490
g851
sI1491
g1460
sI1492
g493
sI1493
g1613
sI1494
g507
sI1495
g598
sI1496
g1412
sI1497
g1844
sI1498
g1949
sI1499
g1678
sI1500
g171
sI1501
g1491
sI1502
g101
sI1503
g1402
sI1504
g1538
sI1505
g701
sI1506
g363
sI1507
g1812
sI1508
g1524
sI1509
g1014
sI1510
g1940
sI1511
g757
sI1512
g201
sI1513
g1387
sI1514
g232
sI1515
g662
sI1516
g42
sI1517
g1284
sI1518
g514
sI1519
g1252
sI1520
g1651
sI1521
g503
sI1522
g717
sI1523
g145
sI1524
g544
sI1525
g1267
sI1526
g125
sI1527
g1270
sI1528
g327
sI1529
g1619
sI1530
g1174
sI1531
g1090
sI1532
g1712
sI1533
g1740
sI1534
g658
sI1535
g423
sI1536
g528
sI1537
g1939
sI1538
g542
sI1539
g1840
sI1540
g1055
sI1541
g762
sI1542
g388
sI1543
g402
sI1544
g335
sI1545
g969
sI1546
g105
sI1547
g1910
sI1548
g77
sI1549
g710
sI1550
g1114
sI1551
g835
sI1552
g1772
sI1553
g353
sI1554
g973
sI1555
g172
sI1556
g88
sI1557
g1400
sI1558
g1786
sI1559
g1100
sI1560
g612
sI1561
g414
sI1562
g1470
sI1563
g1634
sI1564
g362
sI1565
g192
sI1566
g1409
sI1567
g1626
sI1568
g959
sI1569
g338
sI1570
g269
sI1571
g1361
sI1572
g1856
sI1573
g1765
sI1574
g348
sI1575
g611
sI1576
g938
sI1577
g1012
sI1578
g1557
sI1579
g226
sI1580
g1873
sI1581
g766
sI1582
g221
sI1583
g872
sI1584
g1580
sI1585
g1642
sI1586
g849
sI1587
g15
sI1588
g879
sI1589
g649
sI1590
g70
sI1591
g942
sI1592
g1407
sI1593
g800
sI1594
g892
sI1595
g583
sI1596
g1612
sI1597
g116
sI1598
g428
sI1599
g1143
sI1600
g1480
sI1601
g1858
sI1602
g1134
sI1603
g133
sI1604
g391
sI1605
g788
sI1606
g1040
sI1607
g52
sI1608
g1364
sI1609
g1333
sI1610
g1033
sI1611
g1882
sI1612
g1300
sI1613
g222
sI1614
g575
sI1615
g71
sI1616
g1867
sI1617
g375
sI1618
g1544
sI1619
g590
sI1620
g1448
sI1621
g86
sI1622
g1863
sI1623
g464
sI1624
g1731
sI1625
g547
sI1626
g1464
sI1627
g1183
sI1628
g1352
sI1629
g1907
sI1630
g370
sI1631
g796
sI1632
g1478
sI1633
g102
sI1634
g836
sI1635
g496
sI1636
g1110
sI1637
g530
sI1638
g165
sI1639
g5
sI1640
g876
sI1641
g94
sI1642
g513
sI1643
g995
sI1644
g539
sI1645
g1661
sI1646
g1287
sI1647
g318
sI1648
g60
sI1649
g580
sI1650
g1829
sI1651
g929
sI1652
g682
sI1653
g614
sI1654
g1556
sI1655
g387
sI1656
g1846
sI1657
g1683
sI1658
g87
sI1659
g1719
sI1660
g817
sI1661
g475
sI1662
g8
sI1663
g1510
sI1664
g1398
sI1665
g1463
sI1666
g1272
sI1667
g1004
sI1668
g438
sI1669
g1045
sI1670
g1628
sI1671
g1170
sI1672
g1391
sI1673
g1088
sI1674
g1736
sI1675
g179
sI1676
g491
sI1677
g1098
sI1678
g62
sI1679
g847
sI1680
g473
sI1681
g1824
sI1682
g810
sI1683
g261
sI1684
g1126
sI1685
g1063
sI1686
g277
sI1687
g1894
sI1688
g480
sI1689
g1504
sI1690
g1374
sI1691
g1981
sI1692
g1943
sI1693
g147
sI1694
g954
sI1695
g1918
sI1696
g650
sI1697
g365
sI1698
g768
sI1699
g1513
sI1700
g820
sI1701
g1946
sI1702
g593
sI1703
g301
sI1704
g917
sI1705
g1181
sI1706
g16
sI1707
g74
sI1708
g1611
sI1709
g713
sI1710
g1827
sI1711
g494
sI1712
g44
sI1713
g468
sI1714
g600
sI1715
g1908
sI1716
g1493
sI1717
g281
sI1718
g1117
sI1719
g642
sI1720
g862
sI1721
g1052
sI1722
g454
sI1723
g1762
sI1724
g1260
sI1725
g456
sI1726
g1720
sI1727
g638
sI1728
g1980
sI1729
g198
sI1730
g1072
sI1731
g1728
sI1732
g144
sI1733
g1835
sI1734
g1132
sI1735
g1989
sI1736
g1849
sI1737
g1414
sI1738
g436
sI1739
g233
sI1740
g1018
sI1741
g169
sI1742
g1483
sI1743
g359
sI1744
g1035
sI1745
g113
sI1746
g1173
sI1747
g220
sI1748
g1586
sI1749
g409
sI1750
g1638
sI1751
g1836
sI1752
g368
sI1753
g1331
sI1754
g238
sI1755
g1703
sI1756
g783
sI1757
g1884
sI1758
g944
sI1759
g205
sI1760
g502
sI1761
g1895
sI1762
g1666
sI1763
g506
sI1764
g296
sI1765
g1130
sI1766
g69
sI1767
g630
sI1768
g1184
sI1769
g350
sI1770
g1320
sI1771
g1820
sI1772
g822
sI1773
g823
sI1774
g937
sI1775
g430
sI1776
g731
sI1777
g548
sI1778
g1443
sI1779
g23
sI1780
g912
sI1781
g230
sI1782
g1833
sI1783
g211
sI1784
g714
sI1785
g971
sI1786
g1321
sI1787
g75
sI1788
g479
sI1789
g1974
sI1790
g252
sI1791
g1385
sI1792
g1322
sI1793
g1457
sI1794
g1734
sI1795
g877
sI1796
g830
sI1797
g1275
sI1798
g1992
sI1799
g1967
sI1800
g1245
sI1801
g1568
sI1802
g1961
sI1803
g1054
sI1804
g1084
sI1805
g1677
sI1806
g1041
sI1807
g966
sI1808
g421
sI1809
g1546
sI1810
g207
sI1811
g1494
sI1812
g84
sI1813
g111
sI1814
g981
sI1815
g564
sI1816
g1520
sI1817
g293
sI1818
g1356
sI1819
g441
sI1820
g591
sI1821
g1507
sI1822
g1871
sI1823
g672
sI1824
g1027
sI1825
g286
sI1826
g535
sI1827
g1646
sI1828
g1919
sI1829
g1742
sI1830
g1875
sI1831
g1641
sI1832
g1201
sI1833
g1682
sI1834
g1290
sI1835
g1050
sI1836
g1016
sI1837
g1371
sI1838
g1625
sI1839
g1662
sI1840
g1151
sI1841
g541
sI1842
g1152
sI1843
g431
sI1844
g1769
sI1845
g1338
sI1846
g117
sI1847
g1656
sI1848
g516
sI1849
g138
sI1850
g1784
sI1851
g1219
sI1852
g1363
sI1853
g659
sI1854
g889
sI1855
g1440
sI1856
g270
sI1857
g58
sI1858
g609
sI1859
g100
sI1860
g1591
sI1861
g811
sI1862
g1396
sI1863
g1519
sI1864
g1511
sI1865
g1577
sI1866
g358
sI1867
g433
sI1868
g1543
sI1869
g1792
sI1870
g484
sI1871
g733
sI1872
g1453
sI1873
g1061
sI1874
g636
sI1875
g149
sI1876
g1605
sI1877
g605
sI1878
g1621
sI1879
g1108
sI1880
g256
sI1881
g1433
sI1882
g403
sI1883
g907
sI1884
g1379
sI1885
g1474
sI1886
g647
sI1887
g311
sI1888
g865
sI1889
g1036
sI1890
g1635
sI1891
g300
sI1892
g1135
sI1893
g540
sI1894
g576
sI1895
g1034
sI1896
g1505
sI1897
g646
sI1898
g1262
sI1899
g483
sI1900
g1860
sI1901
g589
sI1902
g510
sI1903
g38
sI1904
g602
sI1905
g967
sI1906
g1676
sI1907
g1053
sI1908
g1813
sI1909
g1339
sI1910
g166
sI1911
g1175
sI1912
g7
sI1913
g1329
sI1914
g395
sI1915
g1675
sI1916
g6
sI1917
g354
sI1918
g285
sI1919
g1118
sI1920
g1467
sI1921
g1466
sI1922
g1360
sI1923
g708
sI1924
g1366
sI1925
g1955
sI1926
g964
sI1927
g372
sI1928
g1785
sI1929
g1774
sI1930
g1818
sI1931
g1959
sI1932
g1060
sI1933
g1191
sI1934
g1001
sI1935
g622
sI1936
g462
sI1937
g257
sI1938
g361
sI1939
g1794
sI1940
g1212
sI1941
g1926
sI1942
g631
sI1943
g317
sI1944
g1853
sI1945
g596
sI1946
g1340
sI1947
g1454
sI1948
g448
sI1949
g1214
sI1950
g429
sI1951
g633
sI1952
g725
sI1953
g1551
sI1954
g1999
sI1955
g1476
sI1956
g1743
sI1957
g239
sI1958
g1991
sI1959
g1987
sI1960
g1428
sI1961
g213
sI1962
g1630
sI1963
g1346
sI1964
g1923
sI1965
g526
sI1966
g801
sI1967
g1213
sI1968
g59
sI1969
g932
sI1970
g1985
sI1971
g1092
sI1972
g754
sI1973
g1188
sI1974
g1192
sI1975
g435
sI1976
g164
sI1977
g1569
sI1978
g223
sI1979
g1530
sI1980
g181
sI1981
g410
sI1982
g1582
sI1983
g1782
sI1984
g132
sI1985
g875
sI1986
g1437
sI1987
g400
sI1988
g624
sI1989
g764
sI1990
g1528
sI1991
g761
sI1992
g174
sI1993
g899
sI1994
g1122
sI1995
g1258
sI1996
g1904
sI1997
g1420
sI1998
g1689
stp2001
.